(dp1
VAPI_CREATE_LAYER
p2
Vv1/CREATE_LAYER
p3
sVAPI_PUBLISH_LAYER
p4
Vv1/PUBLISH_LAYER
p5
sVDATASERVICE_ACTIVESTORESLIST
p6
Vv1/DATASERVICE_ACTIVESTORESLIST
p7
sVAUTHSERVICE_LOGOUT
p8
Vv1/AUTHSERVICE_LOGOUT
p9
sVAPI_UPDATE_LAYER
p10
Vv1/UPDATE_LAYER
p11
sVSTART_ALL_SERVICES
p12
Vv1/START_ALL_SERVICES
p13
sVCONFIG_REGISTER_DEVICE
p14
Vv1/CONFIG_REGISTER_DEVICE
p15
sVDATASERVICE_DELETEFEATURE
p16
Vv1/DATASERVICE_DELETEFEATURE
p17
sVSENSORSERVICE_GPS
p18
Vv1/SENSORSERVICE_GPS
p19
sVDATASERVICE_STORELIST
p20
Vv1/DATASERVICE_STORELIST
p21
sVCONFIG_REMOVE_STORE
p22
Vv1/CONFIG_REMOVE_STORE
p23
sVDATASERVICE_QUERYALL
p24
Vv1/DATASERVICE_QUERYALL
p25
sVNOTIFICATION_INFO
p26
Vv1/NOTIFICATION_INFO
p27
sVAPI_REGISTER_LAYER
p28
Vv1/REGISTER_LAYER
p29
sVNOTIFICATION_ALERT
p30
Vv1/NOTIFICATION_ALERT
p31
sVNOTIFICATION_CONTENT_AVAILABLE
p32
Vv1/NOTIFICATION_CONTENT_AVAILABLE
p33
sVAUTHSERVICE_LOGIN_STATUS
p34
Vv1/AUTHSERVICE_LOGIN_STATUS
p35
sVDATASERVICE_CREATEFEATURE
p36
Vv1/DATASERVICE_CREATEFEATURE
p37
sVCONFIG_ADD_FORM
p38
Vv1/CONFIG_ADD_FORM
p39
sVCONFIG_FORM_LIST
p40
Vv1/CONFIG_FORM_LIST
p41
sVCONFIG_UPDATE_FORM
p42
Vv1/CONFIG_UPDATE_FORM
p43
sVDATASERVICE_SPATIALQUERY
p44
Vv1/DATASERVICE_SPATIALQUERY
p45
sVAPI_CREATE_FEATURE
p46
Vv1/CREATE_FEATURE
p47
sVAPI_DELETE_LAYER
p48
Vv1/DELETE_LAYER
p49
sVAUTHSERVICE_AUTHENTICATE
p50
Vv1/AUTHSERVICE_AUTHENTICATE
p51
sVAPI_FETCH_LAYERS
p52
Vv1/FETCH_LAYERS
p53
sVDATASERVICE_SPATIALQUERYALL
p54
Vv1/DATASERVICE_SPATIALQUERYALL
p55
sVCONFIG_REMOVE_FORM
p56
Vv1/CONFIG_REMOVE_FORM
p57
sVDATASERVICE_FORMLIST
p58
Vv1/DATASERVICE_FORMLIST
p59
sVNO_ACTION
p60
Vv1/NO_ACTION
p61
sVDATASERVICE_QUERY
p62
Vv1/DATASERVICE_QUERY
p63
sVCONFIG_ADD_STORE
p64
Vv1/CONFIG_ADD_STORE
p65
sVAUTHSERVICE_ACCESS_TOKEN
p66
Vv1/AUTHSERVICE_ACCESS_TOKEN
p67
sVNETWORKSERVICE_POST_REQUEST
p68
Vv1/NETWORKSERVICE_POST_REQUEST
p69
sVCONFIG_FULL
p70
Vv1/CONFIG_FULL
p71
sVCONFIG_STORE_LIST
p72
Vv1/CONFIG_STORE_LIST
p73
sVBACKENDSERVICE_MQTT_CONNECTED
p74
Vv1/BACKENDSERVICE_MQTT_CONNECTED
p75
sVDEVICE_INFO
p76
Vv1/DEVICE_INFO
p77
sS'_version'
p78
V0.12
p79
sVDATASERVICE_UPDATEFEATURE
p80
Vv1/DATASERVICE_UPDATEFEATURE
p81
sVSPATIALIO_IMPORT
p82
Vv1/SPATIALIO_IMPORT
p83
sVNOTIFICATIONS
p84
Vv1/NOTIFICATIONS
p85
sVNETWORKSERVICE_GET_REQUEST
p86
Vv1/NETWORKSERVICE_GET_REQUEST
p87
sVCONFIG_UPDATE_STORE
p88
Vv1/CONFIG_UPDATE_STORE
p89
sVDATASERVICE_ACTIVESTOREBYID
p90
Vv1/DATASERVICE_ACTIVESTOREBYID
p91
sVBACKENDSERVICE_HTTP_URI
p92
Vv1/BACKENDSERVICE_HTTP_URI
p93
s.