(dp1
VGEOSERVER_CREATE_FEATURETYPE_ERROR
p2
Vv1/GEOSERVER_CREATE_FEATURETYPE_ERROR
p3
sVPOSTGIS_DROP_TABLE_ERROR
p4
Vv1/POSTGIS_DROP_TABLE_ERROR
p5
sVNO_LAYERS_FOUND
p6
Vv1/NO_LAYERS_FOUND
p7
sS'_version'
p8
V0.12
p9
sVS3_ERROR
p10
Vv1/S3_ERROR
p11
sVPOSTGIS_LOAD_RECORDS_ERROR
p12
Vv1/POSTGIS_LOAD_RECORDS_ERROR
p13
sVNO_FILES_TO_PROCESS
p14
Vv1/NO_FILES_TO_PROCESS
p15
sVPOSTGIS_CREATE_TABLE_ERROR
p16
Vv1/POSTGIS_CREATE_TABLE_ERROR
p17
sVNOT_A_VALID_SPATIAL_FILE
p18
Vv1/NOT_A_VALID_SPATIAL_FILE
p19
s.