Certificate:
    Data:
        Version: 3 (0x2)
        Serial Number: 268435664 (0x100000d0)
    Signature Algorithm: sha256WithRSAEncryption
        Issuer: C=DE, ST=Hessen, O=privacyidea, CN=CA001
        Validity
            Not Before: Aug  7 12:13:20 2017 GMT
            Not After : Aug  7 12:13:20 2018 GMT
        Subject: C=DE, ST=Hessen, O=privacyidea, CN=requester.localdomain
        Subject Public Key Info:
            Public Key Algorithm: rsaEncryption
                Public-Key: (2048 bit)
                Modulus:
                    00:cd:be:14:4f:fa:ce:01:3f:42:22:1b:1d:9c:af:
                    dd:92:d2:7f:db:6c:b7:3e:39:43:43:6b:13:03:f1:
                    05:f4:07:74:bc:76:69:28:0b:af:19:8e:d7:fc:e3:
                    cd:c6:58:f2:ca:7f:08:6d:53:fc:07:02:44:24:c6:
                    b4:34:4c:8c:04:fe:33:0e:40:e2:20:ba:02:73:5a:
                    f7:f5:4f:63:6e:cc:c6:b6:df:54:1d:37:39:7d:51:
                    36:26:5f:bd:dc:3f:a8:8b:6b:a2:ae:b6:9d:d6:21:
                    e7:df:41:b8:7a:28:2a:68:48:ca:a8:2d:ed:e1:e9:
                    46:5e:5a:72:6d:b4:84:38:87:91:fd:94:11:0b:28:
                    84:c6:c2:2f:2a:fb:01:f9:36:7a:09:75:d1:33:88:
                    3c:73:41:5b:c8:bf:94:89:70:a1:f0:c0:b9:2e:50:
                    53:1e:b1:17:64:69:f4:2d:81:e0:a9:0d:0e:32:e9:
                    ba:55:8a:85:f1:1b:6f:49:79:b4:7f:88:c3:0d:3e:
                    54:88:9b:3d:1f:38:8c:04:f3:ee:6a:63:2b:f5:c6:
                    db:b4:83:aa:c4:78:41:3a:7d:4b:e1:c8:3e:71:ca:
                    1b:61:59:ea:c6:c4:ca:32:5e:c9:e9:bf:12:29:e6:
                    c6:c3:63:fe:a0:55:da:7a:f1:60:98:4d:26:ed:fa:
                    70:2d
                Exponent: 65537 (0x10001)
        X509v3 extensions:
            X509v3 Key Usage: 
                Digital Signature, Key Encipherment
            X509v3 Basic Constraints: 
                CA:FALSE
            Netscape Cert Type: 
                SSL Server
            Netscape Comment: 
                OpenSSL Generated Server Certificate
            X509v3 Subject Key Identifier: 
                53:3F:ED:5D:09:07:B3:65:7B:AB:45:C9:24:5B:09:77:80:0A:96:ED
            X509v3 Authority Key Identifier: 
                keyid:F4:A7:C0:CC:91:46:AF:64:F3:91:F2:27:F8:C8:B2:6F:8A:87:32:73
                DirName:/C=DE/ST=Hessen/O=privacyidea/CN=CA001
                serial:FB:C8:EB:AC:83:CD:12:07

            X509v3 Extended Key Usage: 
                TLS Web Server Authentication
    Signature Algorithm: sha256WithRSAEncryption
         94:20:0c:54:55:3b:9d:b4:d2:cc:41:02:ee:22:18:d6:a4:0d:
         a4:58:70:da:5c:37:24:f0:ce:f8:b9:ec:35:72:09:7f:7e:29:
         35:a9:7e:a7:da:82:a5:86:30:c4:85:09:6e:fe:b4:da:61:ee:
         2b:97:96:ca:d0:73:26:ae:9d:44:a1:46:16:c2:bd:20:94:c6:
         bb:09:a3:17:e5:ed:77:8d:9a:c1:3c:f1:af:fe:e0:ce:03:a2:
         2a:6b:42:86:64:08:e6:4e:fe:78:14:75:b4:a0:ee:d0:4d:f7:
         c7:b5:01:a3:03:a6:e6:cc:4d:f2:66:57:26:4c:f4:01:5d:1d:
         90:84:f8:f5:aa:5c:ed:fd:bc:12:03:1d:d4:c7:9e:ba:b4:5b:
         15:a3:b7:bf:46:e3:45:a1:ff:a5:f0:25:55:e3:c0:35:90:d8:
         93:26:d9:ac:46:36:eb:54:38:c0:66:ea:ce:0d:f2:fb:51:e5:
         d3:17:ba:5d:5b:63:0d:8d:b6:92:ab:18:ed:16:c8:b2:c1:12:
         61:eb:2b:8e:7f:c7:f8:6b:68:9a:63:75:76:97:0d:93:2d:0c:
         c5:f5:72:38:af:47:00:14:71:98:93:c0:e0:3e:5f:70:ab:e6:
         3e:41:00:2b:a8:c2:79:ab:58:0c:a4:02:e2:3d:7f:4b:ca:09:
         5a:71:55:28
-----BEGIN CERTIFICATE-----
MIIEJjCCAw6gAwIBAgIEEAAA0DANBgkqhkiG9w0BAQsFADBEMQswCQYDVQQGEwJE
RTEPMA0GA1UECAwGSGVzc2VuMRQwEgYDVQQKDAtwcml2YWN5aWRlYTEOMAwGA1UE
AwwFQ0EwMDEwHhcNMTcwODA3MTIxMzIwWhcNMTgwODA3MTIxMzIwWjBUMQswCQYD
VQQGEwJERTEPMA0GA1UECAwGSGVzc2VuMRQwEgYDVQQKDAtwcml2YWN5aWRlYTEe
MBwGA1UEAwwVcmVxdWVzdGVyLmxvY2FsZG9tYWluMIIBIjANBgkqhkiG9w0BAQEF
AAOCAQ8AMIIBCgKCAQEAzb4UT/rOAT9CIhsdnK/dktJ/22y3PjlDQ2sTA/EF9Ad0
vHZpKAuvGY7X/OPNxljyyn8IbVP8BwJEJMa0NEyMBP4zDkDiILoCc1r39U9jbszG
tt9UHTc5fVE2Jl+93D+oi2uirrad1iHn30G4eigqaEjKqC3t4elGXlpybbSEOIeR
/ZQRCyiExsIvKvsB+TZ6CXXRM4g8c0FbyL+UiXCh8MC5LlBTHrEXZGn0LYHgqQ0O
Mum6VYqF8RtvSXm0f4jDDT5UiJs9HziMBPPuamMr9cbbtIOqxHhBOn1L4cg+ccob
YVnqxsTKMl7J6b8SKebGw2P+oFXaevFgmE0m7fpwLQIDAQABo4IBDjCCAQowCwYD
VR0PBAQDAgWgMAkGA1UdEwQCMAAwEQYJYIZIAYb4QgEBBAQDAgZAMDMGCWCGSAGG
+EIBDQQmFiRPcGVuU1NMIEdlbmVyYXRlZCBTZXJ2ZXIgQ2VydGlmaWNhdGUwHQYD
VR0OBBYEFFM/7V0JB7Nle6tFySRbCXeACpbtMHQGA1UdIwRtMGuAFPSnwMyRRq9k
85HyJ/jIsm+KhzJzoUikRjBEMQswCQYDVQQGEwJERTEPMA0GA1UECAwGSGVzc2Vu
MRQwEgYDVQQKDAtwcml2YWN5aWRlYTEOMAwGA1UEAwwFQ0EwMDGCCQD7yOusg80S
BzATBgNVHSUEDDAKBggrBgEFBQcDATANBgkqhkiG9w0BAQsFAAOCAQEAlCAMVFU7
nbTSzEEC7iIY1qQNpFhw2lw3JPDO+LnsNXIJf34pNal+p9qCpYYwxIUJbv602mHu
K5eWytBzJq6dRKFGFsK9IJTGuwmjF+Xtd42awTzxr/7gzgOiKmtChmQI5k7+eBR1
tKDu0E33x7UBowOm5sxN8mZXJkz0AV0dkIT49apc7f28EgMd1MeeurRbFaO3v0bj
RaH/pfAlVePANZDYkybZrEY261Q4wGbqzg3y+1Hl0xe6XVtjDY22kqsY7RbIssES
Yesrjn/H+GtommN1dpcNky0MxfVyOK9HABRxmJPA4D5fcKvmPkEAK6jCeatYDKQC
4j1/S8oJWnFVKA==
-----END CERTIFICATE-----
