Certificate:
    Data:
        Version: 3 (0x2)
        Serial Number: 268435668 (0x100000d4)
    Signature Algorithm: sha256WithRSAEncryption
        Issuer: C=DE, ST=Hessen, O=privacyidea, CN=CA001
        Validity
            Not Before: Aug  7 12:15:09 2017 GMT
            Not After : Aug 27 12:15:09 2019 GMT
        Subject: CN=Steve Test/emailAddress=steve@openssl.org
        Subject Public Key Info:
            Public Key Algorithm: rsaEncryption
                Public-Key: (2048 bit)
                Modulus:
                    00:d2:81:89:20:51:48:0f:73:f4:11:32:24:d5:1f:
                    1c:fd:5c:f5:b6:e6:c5:f0:52:81:dc:d2:af:66:4a:
                    7c:93:31:61:5c:af:d1:6d:06:70:03:60:7c:72:0c:
                    88:dd:49:cd:9e:02:6c:d2:5a:d7:53:0f:f3:da:be:
                    69:64:b5:0f:0c:00:e3:b3:50:47:a3:b3:9b:ba:13:
                    50:d6:58:5a:4b:ab:39:e0:11:ca:0a:27:67:03:78:
                    22:66:6d:92:1e:1b:5c:49:ae:e6:6b:d1:8e:3b:9d:
                    06:d3:c6:ac:4d:53:43:10:ab:e8:96:c1:87:82:97:
                    99:8f:20:d3:99:12:37:31:84:e1:8a:ff:29:03:5f:
                    22:90:3e:7f:9b:e0:20:c1:ad:dc:ae:4c:39:1a:31:
                    96:17:02:8c:b2:d9:b4:0d:20:12:9b:7d:86:54:fd:
                    33:fd:c1:2a:62:46:f8:60:96:cf:6e:01:6f:22:df:
                    13:47:e7:97:ec:05:72:23:a3:62:f8:fa:ef:ac:9c:
                    72:f0:37:cb:2f:37:cf:90:a8:27:51:86:c6:d7:78:
                    08:8f:7e:25:a2:15:70:a2:fb:1c:b6:15:5e:a0:97:
                    8b:81:4c:09:28:8a:27:3b:94:bc:71:db:5b:71:37:
                    9a:2b:16:e0:6f:b5:c9:f5:4b:4f:20:ba:65:cf:af:
                    ad:ad
                Exponent: 65537 (0x10001)
        X509v3 extensions:
            X509v3 Key Usage: 
                Digital Signature, Key Encipherment
            X509v3 Basic Constraints: 
                CA:FALSE
            Netscape Cert Type: 
                SSL Server
            Netscape Comment: 
                OpenSSL Generated Server Certificate
            X509v3 Subject Key Identifier: 
                E5:25:6D:3E:AF:0D:DD:3F:4C:F2:45:19:39:D5:14:DB:7E:9C:C0:AD
            X509v3 Authority Key Identifier: 
                keyid:F4:A7:C0:CC:91:46:AF:64:F3:91:F2:27:F8:C8:B2:6F:8A:87:32:73
                DirName:/C=DE/ST=Hessen/O=privacyidea/CN=CA001
                serial:FB:C8:EB:AC:83:CD:12:07

            X509v3 Extended Key Usage: 
                TLS Web Server Authentication
    Signature Algorithm: sha256WithRSAEncryption
         45:c3:8f:6e:97:c2:33:02:27:e8:1a:2b:43:23:49:6b:b1:59:
         38:d0:5e:72:61:a7:d1:5f:50:f4:cd:18:18:4d:c5:ca:3a:d4:
         1c:ff:3a:61:ad:a5:93:5c:e1:00:43:8f:5f:e4:8c:89:ed:bb:
         05:b5:08:7b:b3:99:b1:ba:ca:d7:51:da:d0:f7:da:80:ed:9b:
         8b:78:4f:84:ea:6c:6b:42:43:76:b4:93:1c:33:84:e1:48:8b:
         d1:6c:d1:e2:1a:7d:25:6f:14:82:35:00:d3:95:98:00:11:d3:
         52:04:f7:58:b4:6a:74:3a:e9:45:9c:d5:1b:b0:62:26:39:cb:
         67:26:78:fe:2f:97:b2:60:d8:9d:e0:d1:c5:28:04:7e:c8:65:
         16:d1:1f:ff:93:89:90:76:f3:12:1f:b1:d0:6e:d3:bb:aa:ac:
         7e:89:78:90:42:8b:ea:36:4f:0a:d2:05:ad:ce:03:d7:80:69:
         f3:b2:54:2c:8b:cc:7a:7c:46:4d:5f:30:0d:43:b2:54:8f:87:
         a6:12:8c:c5:84:76:d7:5e:49:89:14:f4:8c:3d:83:a5:74:fc:
         98:d2:39:1e:14:35:15:cc:02:87:8a:3b:b6:e3:7b:ef:99:49:
         4c:23:3c:55:00:3b:cd:5b:c7:b6:5f:66:f2:f8:d4:e2:c2:0e:
         09:66:26:98
-----BEGIN CERTIFICATE-----
MIIECTCCAvGgAwIBAgIEEAAA1DANBgkqhkiG9w0BAQsFADBEMQswCQYDVQQGEwJE
RTEPMA0GA1UECAwGSGVzc2VuMRQwEgYDVQQKDAtwcml2YWN5aWRlYTEOMAwGA1UE
AwwFQ0EwMDEwHhcNMTcwODA3MTIxNTA5WhcNMTkwODI3MTIxNTA5WjA3MRMwEQYD
VQQDDApTdGV2ZSBUZXN0MSAwHgYJKoZIhvcNAQkBFhFzdGV2ZUBvcGVuc3NsLm9y
ZzCCASIwDQYJKoZIhvcNAQEBBQADggEPADCCAQoCggEBANKBiSBRSA9z9BEyJNUf
HP1c9bbmxfBSgdzSr2ZKfJMxYVyv0W0GcANgfHIMiN1JzZ4CbNJa11MP89q+aWS1
DwwA47NQR6Ozm7oTUNZYWkurOeARygonZwN4ImZtkh4bXEmu5mvRjjudBtPGrE1T
QxCr6JbBh4KXmY8g05kSNzGE4Yr/KQNfIpA+f5vgIMGt3K5MORoxlhcCjLLZtA0g
Ept9hlT9M/3BKmJG+GCWz24BbyLfE0fnl+wFciOjYvj676yccvA3yy83z5CoJ1GG
xtd4CI9+JaIVcKL7HLYVXqCXi4FMCSiKJzuUvHHbW3E3misW4G+1yfVLTyC6Zc+v
ra0CAwEAAaOCAQ4wggEKMAsGA1UdDwQEAwIFoDAJBgNVHRMEAjAAMBEGCWCGSAGG
+EIBAQQEAwIGQDAzBglghkgBhvhCAQ0EJhYkT3BlblNTTCBHZW5lcmF0ZWQgU2Vy
dmVyIENlcnRpZmljYXRlMB0GA1UdDgQWBBTlJW0+rw3dP0zyRRk51RTbfpzArTB0
BgNVHSMEbTBrgBT0p8DMkUavZPOR8if4yLJviocyc6FIpEYwRDELMAkGA1UEBhMC
REUxDzANBgNVBAgMBkhlc3NlbjEUMBIGA1UECgwLcHJpdmFjeWlkZWExDjAMBgNV
BAMMBUNBMDAxggkA+8jrrIPNEgcwEwYDVR0lBAwwCgYIKwYBBQUHAwEwDQYJKoZI
hvcNAQELBQADggEBAEXDj26XwjMCJ+gaK0MjSWuxWTjQXnJhp9FfUPTNGBhNxco6
1Bz/OmGtpZNc4QBDj1/kjIntuwW1CHuzmbG6ytdR2tD32oDtm4t4T4TqbGtCQ3a0
kxwzhOFIi9Fs0eIafSVvFII1ANOVmAAR01IE91i0anQ66UWc1RuwYiY5y2cmeP4v
l7Jg2J3g0cUoBH7IZRbRH/+TiZB28xIfsdBu07uqrH6JeJBCi+o2TwrSBa3OA9eA
afOyVCyLzHp8Rk1fMA1DslSPh6YSjMWEdtdeSYkU9Iw9g6V0/JjSOR4UNRXMAoeK
O7bje++ZSUwjPFUAO81bx7ZfZvL41OLCDglmJpg=
-----END CERTIFICATE-----
