Certificate:
    Data:
        Version: 3 (0x2)
        Serial Number: 268435673 (0x100000d9)
    Signature Algorithm: sha256WithRSAEncryption
        Issuer: C=DE, ST=Hessen, O=privacyidea, CN=CA001
        Validity
            Not Before: Jul 31 22:48:09 2017 GMT
            Not After : Jul 31 22:48:09 2018 GMT
        Subject: C=DE, ST=Hessen, O=privacyidea, CN=requester.localdomain
        Subject Public Key Info:
            Public Key Algorithm: rsaEncryption
                Public-Key: (2048 bit)
                Modulus:
                    00:cd:be:14:4f:fa:ce:01:3f:42:22:1b:1d:9c:af:
                    dd:92:d2:7f:db:6c:b7:3e:39:43:43:6b:13:03:f1:
                    05:f4:07:74:bc:76:69:28:0b:af:19:8e:d7:fc:e3:
                    cd:c6:58:f2:ca:7f:08:6d:53:fc:07:02:44:24:c6:
                    b4:34:4c:8c:04:fe:33:0e:40:e2:20:ba:02:73:5a:
                    f7:f5:4f:63:6e:cc:c6:b6:df:54:1d:37:39:7d:51:
                    36:26:5f:bd:dc:3f:a8:8b:6b:a2:ae:b6:9d:d6:21:
                    e7:df:41:b8:7a:28:2a:68:48:ca:a8:2d:ed:e1:e9:
                    46:5e:5a:72:6d:b4:84:38:87:91:fd:94:11:0b:28:
                    84:c6:c2:2f:2a:fb:01:f9:36:7a:09:75:d1:33:88:
                    3c:73:41:5b:c8:bf:94:89:70:a1:f0:c0:b9:2e:50:
                    53:1e:b1:17:64:69:f4:2d:81:e0:a9:0d:0e:32:e9:
                    ba:55:8a:85:f1:1b:6f:49:79:b4:7f:88:c3:0d:3e:
                    54:88:9b:3d:1f:38:8c:04:f3:ee:6a:63:2b:f5:c6:
                    db:b4:83:aa:c4:78:41:3a:7d:4b:e1:c8:3e:71:ca:
                    1b:61:59:ea:c6:c4:ca:32:5e:c9:e9:bf:12:29:e6:
                    c6:c3:63:fe:a0:55:da:7a:f1:60:98:4d:26:ed:fa:
                    70:2d
                Exponent: 65537 (0x10001)
        X509v3 extensions:
            X509v3 Key Usage: 
                Digital Signature, Key Encipherment
            X509v3 Basic Constraints: 
                CA:FALSE
            Netscape Cert Type: 
                SSL Server
            Netscape Comment: 
                OpenSSL Generated Server Certificate
            X509v3 Subject Key Identifier: 
                53:3F:ED:5D:09:07:B3:65:7B:AB:45:C9:24:5B:09:77:80:0A:96:ED
            X509v3 Authority Key Identifier: 
                keyid:F4:A7:C0:CC:91:46:AF:64:F3:91:F2:27:F8:C8:B2:6F:8A:87:32:73
                DirName:/C=DE/ST=Hessen/O=privacyidea/CN=CA001
                serial:FB:C8:EB:AC:83:CD:12:07

            X509v3 Extended Key Usage: 
                TLS Web Server Authentication
    Signature Algorithm: sha256WithRSAEncryption
         59:70:56:49:14:5a:c1:46:64:32:ff:fa:9b:7d:f0:19:eb:11:
         05:39:d9:50:ea:bb:e3:49:04:51:2a:4e:90:04:1b:16:82:69:
         b0:3e:68:f4:65:0d:f8:b0:4b:c1:05:e1:37:9d:50:6e:ac:6e:
         c0:39:c8:0c:0d:7c:aa:bb:0b:c0:6e:95:1e:66:d1:85:ee:84:
         57:a6:f0:f0:4e:af:da:bc:9e:3c:6a:11:e5:f1:a7:e4:31:30:
         b8:cc:bf:8d:07:7b:99:34:c3:67:90:32:ca:88:0d:81:b8:6c:
         72:c8:9b:ed:4a:ee:82:7d:a4:15:7d:9b:eb:ae:7f:21:39:1b:
         6b:c8:a3:63:27:90:dc:e0:cc:42:e1:eb:e9:10:a5:c8:77:e4:
         e5:79:73:0e:05:d2:59:eb:48:b9:61:ab:0b:2a:b9:e1:d9:7b:
         42:ca:d0:6e:de:15:6c:c4:20:5a:79:c0:76:40:cb:15:64:db:
         c7:86:77:7d:c7:63:05:94:7f:96:15:e5:9f:6a:46:e1:15:9d:
         c5:5e:52:78:6d:f2:cd:5a:b6:4b:36:56:66:d3:32:15:0b:e2:
         09:8d:31:07:16:34:ad:77:16:82:3d:cd:db:c1:36:aa:e2:14:
         03:bf:40:80:36:e4:05:f4:98:0f:21:e8:f1:30:ab:1c:3c:50:
         a3:16:7f:07
-----BEGIN CERTIFICATE-----
MIIEJjCCAw6gAwIBAgIEEAAA2TANBgkqhkiG9w0BAQsFADBEMQswCQYDVQQGEwJE
RTEPMA0GA1UECAwGSGVzc2VuMRQwEgYDVQQKDAtwcml2YWN5aWRlYTEOMAwGA1UE
AwwFQ0EwMDEwHhcNMTcwNzMxMjI0ODA5WhcNMTgwNzMxMjI0ODA5WjBUMQswCQYD
VQQGEwJERTEPMA0GA1UECAwGSGVzc2VuMRQwEgYDVQQKDAtwcml2YWN5aWRlYTEe
MBwGA1UEAwwVcmVxdWVzdGVyLmxvY2FsZG9tYWluMIIBIjANBgkqhkiG9w0BAQEF
AAOCAQ8AMIIBCgKCAQEAzb4UT/rOAT9CIhsdnK/dktJ/22y3PjlDQ2sTA/EF9Ad0
vHZpKAuvGY7X/OPNxljyyn8IbVP8BwJEJMa0NEyMBP4zDkDiILoCc1r39U9jbszG
tt9UHTc5fVE2Jl+93D+oi2uirrad1iHn30G4eigqaEjKqC3t4elGXlpybbSEOIeR
/ZQRCyiExsIvKvsB+TZ6CXXRM4g8c0FbyL+UiXCh8MC5LlBTHrEXZGn0LYHgqQ0O
Mum6VYqF8RtvSXm0f4jDDT5UiJs9HziMBPPuamMr9cbbtIOqxHhBOn1L4cg+ccob
YVnqxsTKMl7J6b8SKebGw2P+oFXaevFgmE0m7fpwLQIDAQABo4IBDjCCAQowCwYD
VR0PBAQDAgWgMAkGA1UdEwQCMAAwEQYJYIZIAYb4QgEBBAQDAgZAMDMGCWCGSAGG
+EIBDQQmFiRPcGVuU1NMIEdlbmVyYXRlZCBTZXJ2ZXIgQ2VydGlmaWNhdGUwHQYD
VR0OBBYEFFM/7V0JB7Nle6tFySRbCXeACpbtMHQGA1UdIwRtMGuAFPSnwMyRRq9k
85HyJ/jIsm+KhzJzoUikRjBEMQswCQYDVQQGEwJERTEPMA0GA1UECAwGSGVzc2Vu
MRQwEgYDVQQKDAtwcml2YWN5aWRlYTEOMAwGA1UEAwwFQ0EwMDGCCQD7yOusg80S
BzATBgNVHSUEDDAKBggrBgEFBQcDATANBgkqhkiG9w0BAQsFAAOCAQEAWXBWSRRa
wUZkMv/6m33wGesRBTnZUOq740kEUSpOkAQbFoJpsD5o9GUN+LBLwQXhN51Qbqxu
wDnIDA18qrsLwG6VHmbRhe6EV6bw8E6v2ryePGoR5fGn5DEwuMy/jQd7mTTDZ5Ay
yogNgbhscsib7Urugn2kFX2b665/ITkba8ijYyeQ3ODMQuHr6RClyHfk5XlzDgXS
WetIuWGrCyq54dl7QsrQbt4VbMQgWnnAdkDLFWTbx4Z3fcdjBZR/lhXln2pG4RWd
xV5SeG3yzVq2SzZWZtMyFQviCY0xBxY0rXcWgj3N28E2quIUA79AgDbkBfSYDyHo
8TCrHDxQoxZ/Bw==
-----END CERTIFICATE-----
