Certificate:
    Data:
        Version: 3 (0x2)
        Serial Number: 268435689 (0x100000e9)
    Signature Algorithm: sha256WithRSAEncryption
        Issuer: C=DE, ST=Hessen, O=privacyidea, CN=CA001
        Validity
            Not Before: Apr 27 16:13:46 2017 GMT
            Not After : Apr 27 16:13:46 2018 GMT
        Subject: C=DE, ST=Hessen, O=privacyidea, CN=requester.localdomain
        Subject Public Key Info:
            Public Key Algorithm: rsaEncryption
                Public-Key: (2048 bit)
                Modulus:
                    00:cd:be:14:4f:fa:ce:01:3f:42:22:1b:1d:9c:af:
                    dd:92:d2:7f:db:6c:b7:3e:39:43:43:6b:13:03:f1:
                    05:f4:07:74:bc:76:69:28:0b:af:19:8e:d7:fc:e3:
                    cd:c6:58:f2:ca:7f:08:6d:53:fc:07:02:44:24:c6:
                    b4:34:4c:8c:04:fe:33:0e:40:e2:20:ba:02:73:5a:
                    f7:f5:4f:63:6e:cc:c6:b6:df:54:1d:37:39:7d:51:
                    36:26:5f:bd:dc:3f:a8:8b:6b:a2:ae:b6:9d:d6:21:
                    e7:df:41:b8:7a:28:2a:68:48:ca:a8:2d:ed:e1:e9:
                    46:5e:5a:72:6d:b4:84:38:87:91:fd:94:11:0b:28:
                    84:c6:c2:2f:2a:fb:01:f9:36:7a:09:75:d1:33:88:
                    3c:73:41:5b:c8:bf:94:89:70:a1:f0:c0:b9:2e:50:
                    53:1e:b1:17:64:69:f4:2d:81:e0:a9:0d:0e:32:e9:
                    ba:55:8a:85:f1:1b:6f:49:79:b4:7f:88:c3:0d:3e:
                    54:88:9b:3d:1f:38:8c:04:f3:ee:6a:63:2b:f5:c6:
                    db:b4:83:aa:c4:78:41:3a:7d:4b:e1:c8:3e:71:ca:
                    1b:61:59:ea:c6:c4:ca:32:5e:c9:e9:bf:12:29:e6:
                    c6:c3:63:fe:a0:55:da:7a:f1:60:98:4d:26:ed:fa:
                    70:2d
                Exponent: 65537 (0x10001)
        X509v3 extensions:
            X509v3 Key Usage: 
                Digital Signature, Key Encipherment
            X509v3 Basic Constraints: 
                CA:FALSE
            Netscape Cert Type: 
                SSL Server
            Netscape Comment: 
                OpenSSL Generated Server Certificate
            X509v3 Subject Key Identifier: 
                53:3F:ED:5D:09:07:B3:65:7B:AB:45:C9:24:5B:09:77:80:0A:96:ED
            X509v3 Authority Key Identifier: 
                keyid:F4:A7:C0:CC:91:46:AF:64:F3:91:F2:27:F8:C8:B2:6F:8A:87:32:73
                DirName:/C=DE/ST=Hessen/O=privacyidea/CN=CA001
                serial:FB:C8:EB:AC:83:CD:12:07

            X509v3 Extended Key Usage: 
                TLS Web Server Authentication
    Signature Algorithm: sha256WithRSAEncryption
         26:3f:12:1a:a4:80:ed:c4:73:e5:73:67:de:d1:4d:1c:04:ad:
         e8:ce:b7:a3:10:69:2b:ab:ba:65:07:95:3f:8c:6e:98:34:0b:
         d9:59:56:14:93:eb:15:f5:37:04:47:b1:48:87:3a:a4:d5:6f:
         77:e4:21:fc:aa:6e:9c:67:33:e5:d2:42:71:31:ab:39:98:3f:
         77:b7:3e:aa:61:e1:f5:aa:45:d2:49:51:48:87:89:e9:03:a4:
         38:ea:a8:42:58:42:0b:ec:6e:4b:0b:66:b0:c1:53:d8:94:d0:
         d2:99:f2:3d:0d:d5:0a:d9:5e:ea:5a:80:b1:2b:b0:57:c7:76:
         2c:bb:f2:2d:ee:1b:7d:85:e8:a7:1b:0b:8e:08:d9:2c:8c:84:
         a0:69:57:5e:f6:2a:48:62:9a:ac:b0:63:02:18:b4:a9:83:33:
         56:09:da:8d:f6:97:fe:b4:dd:49:66:62:fb:28:8b:57:1b:90:
         bc:0e:f9:7f:6f:8c:59:8b:21:4a:ff:21:dc:9a:15:b8:fc:46:
         23:03:3a:a6:62:9a:25:6a:e6:41:e6:4d:76:23:22:ac:aa:1d:
         df:96:53:0c:b5:c1:20:fc:2e:31:cc:5b:8a:14:c7:41:2f:10:
         e9:50:ce:7f:e7:78:4e:68:cd:0a:af:60:22:69:7e:24:83:00:
         7c:a9:42:5b
-----BEGIN CERTIFICATE-----
MIIEJjCCAw6gAwIBAgIEEAAA6TANBgkqhkiG9w0BAQsFADBEMQswCQYDVQQGEwJE
RTEPMA0GA1UECAwGSGVzc2VuMRQwEgYDVQQKDAtwcml2YWN5aWRlYTEOMAwGA1UE
AwwFQ0EwMDEwHhcNMTcwNDI3MTYxMzQ2WhcNMTgwNDI3MTYxMzQ2WjBUMQswCQYD
VQQGEwJERTEPMA0GA1UECAwGSGVzc2VuMRQwEgYDVQQKDAtwcml2YWN5aWRlYTEe
MBwGA1UEAwwVcmVxdWVzdGVyLmxvY2FsZG9tYWluMIIBIjANBgkqhkiG9w0BAQEF
AAOCAQ8AMIIBCgKCAQEAzb4UT/rOAT9CIhsdnK/dktJ/22y3PjlDQ2sTA/EF9Ad0
vHZpKAuvGY7X/OPNxljyyn8IbVP8BwJEJMa0NEyMBP4zDkDiILoCc1r39U9jbszG
tt9UHTc5fVE2Jl+93D+oi2uirrad1iHn30G4eigqaEjKqC3t4elGXlpybbSEOIeR
/ZQRCyiExsIvKvsB+TZ6CXXRM4g8c0FbyL+UiXCh8MC5LlBTHrEXZGn0LYHgqQ0O
Mum6VYqF8RtvSXm0f4jDDT5UiJs9HziMBPPuamMr9cbbtIOqxHhBOn1L4cg+ccob
YVnqxsTKMl7J6b8SKebGw2P+oFXaevFgmE0m7fpwLQIDAQABo4IBDjCCAQowCwYD
VR0PBAQDAgWgMAkGA1UdEwQCMAAwEQYJYIZIAYb4QgEBBAQDAgZAMDMGCWCGSAGG
+EIBDQQmFiRPcGVuU1NMIEdlbmVyYXRlZCBTZXJ2ZXIgQ2VydGlmaWNhdGUwHQYD
VR0OBBYEFFM/7V0JB7Nle6tFySRbCXeACpbtMHQGA1UdIwRtMGuAFPSnwMyRRq9k
85HyJ/jIsm+KhzJzoUikRjBEMQswCQYDVQQGEwJERTEPMA0GA1UECAwGSGVzc2Vu
MRQwEgYDVQQKDAtwcml2YWN5aWRlYTEOMAwGA1UEAwwFQ0EwMDGCCQD7yOusg80S
BzATBgNVHSUEDDAKBggrBgEFBQcDATANBgkqhkiG9w0BAQsFAAOCAQEAJj8SGqSA
7cRz5XNn3tFNHASt6M63oxBpK6u6ZQeVP4xumDQL2VlWFJPrFfU3BEexSIc6pNVv
d+Qh/KpunGcz5dJCcTGrOZg/d7c+qmHh9apF0klRSIeJ6QOkOOqoQlhCC+xuSwtm
sMFT2JTQ0pnyPQ3VCtle6lqAsSuwV8d2LLvyLe4bfYXopxsLjgjZLIyEoGlXXvYq
SGKarLBjAhi0qYMzVgnajfaX/rTdSWZi+yiLVxuQvA75f2+MWYshSv8h3JoVuPxG
IwM6pmKaJWrmQeZNdiMirKod35ZTDLXBIPwuMcxbihTHQS8Q6VDOf+d4TmjNCq9g
Iml+JIMAfKlCWw==
-----END CERTIFICATE-----
