Certificate:
    Data:
        Version: 3 (0x2)
        Serial Number: 268435682 (0x100000e2)
    Signature Algorithm: sha256WithRSAEncryption
        Issuer: C=DE, ST=Hessen, O=privacyidea, CN=CA001
        Validity
            Not Before: Apr 27 15:14:46 2017 GMT
            Not After : Apr 27 15:14:46 2018 GMT
        Subject: C=DE, ST=Hessen, O=privacyidea, CN=requester.localdomain
        Subject Public Key Info:
            Public Key Algorithm: rsaEncryption
                Public-Key: (2048 bit)
                Modulus:
                    00:cd:be:14:4f:fa:ce:01:3f:42:22:1b:1d:9c:af:
                    dd:92:d2:7f:db:6c:b7:3e:39:43:43:6b:13:03:f1:
                    05:f4:07:74:bc:76:69:28:0b:af:19:8e:d7:fc:e3:
                    cd:c6:58:f2:ca:7f:08:6d:53:fc:07:02:44:24:c6:
                    b4:34:4c:8c:04:fe:33:0e:40:e2:20:ba:02:73:5a:
                    f7:f5:4f:63:6e:cc:c6:b6:df:54:1d:37:39:7d:51:
                    36:26:5f:bd:dc:3f:a8:8b:6b:a2:ae:b6:9d:d6:21:
                    e7:df:41:b8:7a:28:2a:68:48:ca:a8:2d:ed:e1:e9:
                    46:5e:5a:72:6d:b4:84:38:87:91:fd:94:11:0b:28:
                    84:c6:c2:2f:2a:fb:01:f9:36:7a:09:75:d1:33:88:
                    3c:73:41:5b:c8:bf:94:89:70:a1:f0:c0:b9:2e:50:
                    53:1e:b1:17:64:69:f4:2d:81:e0:a9:0d:0e:32:e9:
                    ba:55:8a:85:f1:1b:6f:49:79:b4:7f:88:c3:0d:3e:
                    54:88:9b:3d:1f:38:8c:04:f3:ee:6a:63:2b:f5:c6:
                    db:b4:83:aa:c4:78:41:3a:7d:4b:e1:c8:3e:71:ca:
                    1b:61:59:ea:c6:c4:ca:32:5e:c9:e9:bf:12:29:e6:
                    c6:c3:63:fe:a0:55:da:7a:f1:60:98:4d:26:ed:fa:
                    70:2d
                Exponent: 65537 (0x10001)
        X509v3 extensions:
            X509v3 Key Usage: 
                Digital Signature, Key Encipherment
            X509v3 Basic Constraints: 
                CA:FALSE
            Netscape Cert Type: 
                SSL Server
            Netscape Comment: 
                OpenSSL Generated Server Certificate
            X509v3 Subject Key Identifier: 
                53:3F:ED:5D:09:07:B3:65:7B:AB:45:C9:24:5B:09:77:80:0A:96:ED
            X509v3 Authority Key Identifier: 
                keyid:F4:A7:C0:CC:91:46:AF:64:F3:91:F2:27:F8:C8:B2:6F:8A:87:32:73
                DirName:/C=DE/ST=Hessen/O=privacyidea/CN=CA001
                serial:FB:C8:EB:AC:83:CD:12:07

            X509v3 Extended Key Usage: 
                TLS Web Server Authentication
    Signature Algorithm: sha256WithRSAEncryption
         59:c0:64:4f:66:b9:35:53:f2:76:3e:4a:08:ce:f3:2c:0a:9f:
         79:d7:28:de:59:5e:2f:9f:c1:19:51:90:87:0c:82:16:7e:15:
         ce:cb:bf:96:f2:a9:5e:82:cb:e0:84:7c:2e:7a:31:8e:0c:0a:
         7d:19:45:67:0f:cf:8d:a9:c2:a9:a1:d9:b1:86:86:51:ae:8f:
         fe:49:a0:1d:f7:51:60:af:4c:4d:3f:9e:ab:fd:88:09:5d:d4:
         21:bf:14:42:d1:62:1d:f4:63:de:8f:46:cd:97:4b:61:25:73:
         cc:e2:cd:ca:4c:82:f0:c6:c6:d8:e7:7d:1d:0c:58:74:f6:38:
         82:47:68:58:ee:0d:17:1a:b5:f4:ec:9b:5a:4f:f1:d3:bb:b1:
         49:49:0a:a8:27:23:13:f3:aa:d3:04:76:94:4e:75:98:1a:b8:
         71:da:c3:d9:d7:40:4a:0e:fe:49:3f:69:9d:7b:ea:84:8d:e7:
         16:49:fc:21:c6:6a:29:dc:e6:23:23:fd:b9:70:55:fa:67:ba:
         e2:ff:b9:37:47:31:b1:3a:25:ae:18:af:f3:32:ca:37:38:8b:
         42:bf:65:a1:99:ec:36:0b:6b:9d:a7:a2:2b:c8:b6:8a:b8:6b:
         92:bf:ec:d6:1d:09:ec:77:a6:68:e7:3f:33:7f:2e:30:6c:17:
         30:cd:3d:e0
-----BEGIN CERTIFICATE-----
MIIEJjCCAw6gAwIBAgIEEAAA4jANBgkqhkiG9w0BAQsFADBEMQswCQYDVQQGEwJE
RTEPMA0GA1UECAwGSGVzc2VuMRQwEgYDVQQKDAtwcml2YWN5aWRlYTEOMAwGA1UE
AwwFQ0EwMDEwHhcNMTcwNDI3MTUxNDQ2WhcNMTgwNDI3MTUxNDQ2WjBUMQswCQYD
VQQGEwJERTEPMA0GA1UECAwGSGVzc2VuMRQwEgYDVQQKDAtwcml2YWN5aWRlYTEe
MBwGA1UEAwwVcmVxdWVzdGVyLmxvY2FsZG9tYWluMIIBIjANBgkqhkiG9w0BAQEF
AAOCAQ8AMIIBCgKCAQEAzb4UT/rOAT9CIhsdnK/dktJ/22y3PjlDQ2sTA/EF9Ad0
vHZpKAuvGY7X/OPNxljyyn8IbVP8BwJEJMa0NEyMBP4zDkDiILoCc1r39U9jbszG
tt9UHTc5fVE2Jl+93D+oi2uirrad1iHn30G4eigqaEjKqC3t4elGXlpybbSEOIeR
/ZQRCyiExsIvKvsB+TZ6CXXRM4g8c0FbyL+UiXCh8MC5LlBTHrEXZGn0LYHgqQ0O
Mum6VYqF8RtvSXm0f4jDDT5UiJs9HziMBPPuamMr9cbbtIOqxHhBOn1L4cg+ccob
YVnqxsTKMl7J6b8SKebGw2P+oFXaevFgmE0m7fpwLQIDAQABo4IBDjCCAQowCwYD
VR0PBAQDAgWgMAkGA1UdEwQCMAAwEQYJYIZIAYb4QgEBBAQDAgZAMDMGCWCGSAGG
+EIBDQQmFiRPcGVuU1NMIEdlbmVyYXRlZCBTZXJ2ZXIgQ2VydGlmaWNhdGUwHQYD
VR0OBBYEFFM/7V0JB7Nle6tFySRbCXeACpbtMHQGA1UdIwRtMGuAFPSnwMyRRq9k
85HyJ/jIsm+KhzJzoUikRjBEMQswCQYDVQQGEwJERTEPMA0GA1UECAwGSGVzc2Vu
MRQwEgYDVQQKDAtwcml2YWN5aWRlYTEOMAwGA1UEAwwFQ0EwMDGCCQD7yOusg80S
BzATBgNVHSUEDDAKBggrBgEFBQcDATANBgkqhkiG9w0BAQsFAAOCAQEAWcBkT2a5
NVPydj5KCM7zLAqfedco3lleL5/BGVGQhwyCFn4Vzsu/lvKpXoLL4IR8LnoxjgwK
fRlFZw/PjanCqaHZsYaGUa6P/kmgHfdRYK9MTT+eq/2ICV3UIb8UQtFiHfRj3o9G
zZdLYSVzzOLNykyC8MbG2Od9HQxYdPY4gkdoWO4NFxq19OybWk/x07uxSUkKqCcj
E/Oq0wR2lE51mBq4cdrD2ddASg7+ST9pnXvqhI3nFkn8IcZqKdzmIyP9uXBV+me6
4v+5N0cxsTolrhiv8zLKNziLQr9loZnsNgtrnaeiK8i2irhrkr/s1h0J7HemaOc/
M38uMGwXMM094A==
-----END CERTIFICATE-----
