Certificate:
    Data:
        Version: 3 (0x2)
        Serial Number: 268435677 (0x100000dd)
    Signature Algorithm: sha256WithRSAEncryption
        Issuer: C=DE, ST=Hessen, O=privacyidea, CN=CA001
        Validity
            Not Before: Jul 31 22:51:36 2017 GMT
            Not After : Jul 31 22:51:36 2018 GMT
        Subject: C=DE, ST=Hessen, O=privacyidea, CN=requester.localdomain
        Subject Public Key Info:
            Public Key Algorithm: rsaEncryption
                Public-Key: (2048 bit)
                Modulus:
                    00:cd:be:14:4f:fa:ce:01:3f:42:22:1b:1d:9c:af:
                    dd:92:d2:7f:db:6c:b7:3e:39:43:43:6b:13:03:f1:
                    05:f4:07:74:bc:76:69:28:0b:af:19:8e:d7:fc:e3:
                    cd:c6:58:f2:ca:7f:08:6d:53:fc:07:02:44:24:c6:
                    b4:34:4c:8c:04:fe:33:0e:40:e2:20:ba:02:73:5a:
                    f7:f5:4f:63:6e:cc:c6:b6:df:54:1d:37:39:7d:51:
                    36:26:5f:bd:dc:3f:a8:8b:6b:a2:ae:b6:9d:d6:21:
                    e7:df:41:b8:7a:28:2a:68:48:ca:a8:2d:ed:e1:e9:
                    46:5e:5a:72:6d:b4:84:38:87:91:fd:94:11:0b:28:
                    84:c6:c2:2f:2a:fb:01:f9:36:7a:09:75:d1:33:88:
                    3c:73:41:5b:c8:bf:94:89:70:a1:f0:c0:b9:2e:50:
                    53:1e:b1:17:64:69:f4:2d:81:e0:a9:0d:0e:32:e9:
                    ba:55:8a:85:f1:1b:6f:49:79:b4:7f:88:c3:0d:3e:
                    54:88:9b:3d:1f:38:8c:04:f3:ee:6a:63:2b:f5:c6:
                    db:b4:83:aa:c4:78:41:3a:7d:4b:e1:c8:3e:71:ca:
                    1b:61:59:ea:c6:c4:ca:32:5e:c9:e9:bf:12:29:e6:
                    c6:c3:63:fe:a0:55:da:7a:f1:60:98:4d:26:ed:fa:
                    70:2d
                Exponent: 65537 (0x10001)
        X509v3 extensions:
            X509v3 Key Usage: 
                Digital Signature, Key Encipherment
            X509v3 Basic Constraints: 
                CA:FALSE
            Netscape Cert Type: 
                SSL Server
            Netscape Comment: 
                OpenSSL Generated Server Certificate
            X509v3 Subject Key Identifier: 
                53:3F:ED:5D:09:07:B3:65:7B:AB:45:C9:24:5B:09:77:80:0A:96:ED
            X509v3 Authority Key Identifier: 
                keyid:F4:A7:C0:CC:91:46:AF:64:F3:91:F2:27:F8:C8:B2:6F:8A:87:32:73
                DirName:/C=DE/ST=Hessen/O=privacyidea/CN=CA001
                serial:FB:C8:EB:AC:83:CD:12:07

            X509v3 Extended Key Usage: 
                TLS Web Server Authentication
    Signature Algorithm: sha256WithRSAEncryption
         31:80:6b:df:5c:73:82:b7:d7:59:4a:c5:01:ce:3f:fc:94:69:
         6c:e9:89:80:09:6b:50:6c:bc:b0:f1:bf:1f:c2:05:f8:a3:20:
         8f:f1:0e:6f:bc:8f:63:49:d7:44:28:ce:80:80:37:c8:2d:67:
         08:65:50:cc:84:b7:3d:5e:8d:ec:03:28:90:1e:23:65:5f:aa:
         fc:22:6a:67:c3:ed:d0:4b:9a:7e:ef:19:ea:50:38:35:d7:75:
         c9:1d:0d:b3:34:0d:a7:c6:ec:88:02:b5:94:11:41:b5:23:33:
         f9:d1:31:fe:6d:17:81:4a:f5:85:8f:5a:31:d4:bb:c3:a7:17:
         91:23:dd:52:1f:c0:04:c3:1f:21:8d:1b:ee:57:5a:fe:6c:cb:
         9c:8f:7d:85:02:bb:58:70:6d:b0:ae:9e:9a:f2:63:2a:ad:6e:
         00:64:0b:e0:07:25:31:af:0c:2b:08:98:98:89:64:07:0e:54:
         a8:cc:da:81:46:40:76:94:46:67:21:b1:26:e6:af:fc:3c:0c:
         69:4f:c9:66:f3:c2:bc:d7:34:11:8f:59:83:40:22:9f:2a:fe:
         af:9e:46:89:a8:bf:71:60:e9:d7:ee:23:40:a3:20:c2:0f:7a:
         23:7b:48:4f:5f:c3:1c:8d:d3:34:32:9b:4e:34:82:f6:6e:43:
         5f:ed:1b:7e
-----BEGIN CERTIFICATE-----
MIIEJjCCAw6gAwIBAgIEEAAA3TANBgkqhkiG9w0BAQsFADBEMQswCQYDVQQGEwJE
RTEPMA0GA1UECAwGSGVzc2VuMRQwEgYDVQQKDAtwcml2YWN5aWRlYTEOMAwGA1UE
AwwFQ0EwMDEwHhcNMTcwNzMxMjI1MTM2WhcNMTgwNzMxMjI1MTM2WjBUMQswCQYD
VQQGEwJERTEPMA0GA1UECAwGSGVzc2VuMRQwEgYDVQQKDAtwcml2YWN5aWRlYTEe
MBwGA1UEAwwVcmVxdWVzdGVyLmxvY2FsZG9tYWluMIIBIjANBgkqhkiG9w0BAQEF
AAOCAQ8AMIIBCgKCAQEAzb4UT/rOAT9CIhsdnK/dktJ/22y3PjlDQ2sTA/EF9Ad0
vHZpKAuvGY7X/OPNxljyyn8IbVP8BwJEJMa0NEyMBP4zDkDiILoCc1r39U9jbszG
tt9UHTc5fVE2Jl+93D+oi2uirrad1iHn30G4eigqaEjKqC3t4elGXlpybbSEOIeR
/ZQRCyiExsIvKvsB+TZ6CXXRM4g8c0FbyL+UiXCh8MC5LlBTHrEXZGn0LYHgqQ0O
Mum6VYqF8RtvSXm0f4jDDT5UiJs9HziMBPPuamMr9cbbtIOqxHhBOn1L4cg+ccob
YVnqxsTKMl7J6b8SKebGw2P+oFXaevFgmE0m7fpwLQIDAQABo4IBDjCCAQowCwYD
VR0PBAQDAgWgMAkGA1UdEwQCMAAwEQYJYIZIAYb4QgEBBAQDAgZAMDMGCWCGSAGG
+EIBDQQmFiRPcGVuU1NMIEdlbmVyYXRlZCBTZXJ2ZXIgQ2VydGlmaWNhdGUwHQYD
VR0OBBYEFFM/7V0JB7Nle6tFySRbCXeACpbtMHQGA1UdIwRtMGuAFPSnwMyRRq9k
85HyJ/jIsm+KhzJzoUikRjBEMQswCQYDVQQGEwJERTEPMA0GA1UECAwGSGVzc2Vu
MRQwEgYDVQQKDAtwcml2YWN5aWRlYTEOMAwGA1UEAwwFQ0EwMDGCCQD7yOusg80S
BzATBgNVHSUEDDAKBggrBgEFBQcDATANBgkqhkiG9w0BAQsFAAOCAQEAMYBr31xz
grfXWUrFAc4//JRpbOmJgAlrUGy8sPG/H8IF+KMgj/EOb7yPY0nXRCjOgIA3yC1n
CGVQzIS3PV6N7AMokB4jZV+q/CJqZ8Pt0Euafu8Z6lA4Ndd1yR0NszQNp8bsiAK1
lBFBtSMz+dEx/m0XgUr1hY9aMdS7w6cXkSPdUh/ABMMfIY0b7lda/mzLnI99hQK7
WHBtsK6emvJjKq1uAGQL4AclMa8MKwiYmIlkBw5UqMzagUZAdpRGZyGxJuav/DwM
aU/JZvPCvNc0EY9Zg0Ainyr+r55Giai/cWDp1+4jQKMgwg96I3tIT1/DHI3TNDKb
TjSC9m5DX+0bfg==
-----END CERTIFICATE-----
