Certificate:
    Data:
        Version: 3 (0x2)
        Serial Number: 268435680 (0x100000e0)
    Signature Algorithm: sha256WithRSAEncryption
        Issuer: C=DE, ST=Hessen, O=privacyidea, CN=CA001
        Validity
            Not Before: Apr 27 14:18:56 2017 GMT
            Not After : Apr 27 14:18:56 2018 GMT
        Subject: C=DE, ST=Hessen, O=privacyidea, CN=requester.localdomain
        Subject Public Key Info:
            Public Key Algorithm: rsaEncryption
                Public-Key: (2048 bit)
                Modulus:
                    00:cd:be:14:4f:fa:ce:01:3f:42:22:1b:1d:9c:af:
                    dd:92:d2:7f:db:6c:b7:3e:39:43:43:6b:13:03:f1:
                    05:f4:07:74:bc:76:69:28:0b:af:19:8e:d7:fc:e3:
                    cd:c6:58:f2:ca:7f:08:6d:53:fc:07:02:44:24:c6:
                    b4:34:4c:8c:04:fe:33:0e:40:e2:20:ba:02:73:5a:
                    f7:f5:4f:63:6e:cc:c6:b6:df:54:1d:37:39:7d:51:
                    36:26:5f:bd:dc:3f:a8:8b:6b:a2:ae:b6:9d:d6:21:
                    e7:df:41:b8:7a:28:2a:68:48:ca:a8:2d:ed:e1:e9:
                    46:5e:5a:72:6d:b4:84:38:87:91:fd:94:11:0b:28:
                    84:c6:c2:2f:2a:fb:01:f9:36:7a:09:75:d1:33:88:
                    3c:73:41:5b:c8:bf:94:89:70:a1:f0:c0:b9:2e:50:
                    53:1e:b1:17:64:69:f4:2d:81:e0:a9:0d:0e:32:e9:
                    ba:55:8a:85:f1:1b:6f:49:79:b4:7f:88:c3:0d:3e:
                    54:88:9b:3d:1f:38:8c:04:f3:ee:6a:63:2b:f5:c6:
                    db:b4:83:aa:c4:78:41:3a:7d:4b:e1:c8:3e:71:ca:
                    1b:61:59:ea:c6:c4:ca:32:5e:c9:e9:bf:12:29:e6:
                    c6:c3:63:fe:a0:55:da:7a:f1:60:98:4d:26:ed:fa:
                    70:2d
                Exponent: 65537 (0x10001)
        X509v3 extensions:
            X509v3 Key Usage: 
                Digital Signature, Key Encipherment
            X509v3 Basic Constraints: 
                CA:FALSE
            Netscape Cert Type: 
                SSL Server
            Netscape Comment: 
                OpenSSL Generated Server Certificate
            X509v3 Subject Key Identifier: 
                53:3F:ED:5D:09:07:B3:65:7B:AB:45:C9:24:5B:09:77:80:0A:96:ED
            X509v3 Authority Key Identifier: 
                keyid:F4:A7:C0:CC:91:46:AF:64:F3:91:F2:27:F8:C8:B2:6F:8A:87:32:73
                DirName:/C=DE/ST=Hessen/O=privacyidea/CN=CA001
                serial:FB:C8:EB:AC:83:CD:12:07

            X509v3 Extended Key Usage: 
                TLS Web Server Authentication
    Signature Algorithm: sha256WithRSAEncryption
         3e:d1:6b:f1:9c:9c:33:f5:6c:f2:e6:39:05:66:15:e9:52:a2:
         d4:14:09:90:a4:5b:35:01:f8:6a:db:51:e6:73:76:5a:c0:8b:
         97:5b:90:8e:74:f9:13:29:82:f1:23:c4:9f:21:51:b5:17:4a:
         e0:fc:e9:cf:d9:4d:fd:2a:ba:a8:e0:37:c8:d4:ae:df:46:ff:
         1d:0f:f2:c4:cf:37:14:08:ae:ee:f5:39:56:5c:18:29:5b:9f:
         4c:6f:9f:cd:60:2f:75:b5:14:2b:5b:fb:6c:bf:30:a1:22:28:
         0c:04:7c:5e:22:ea:9d:0a:61:c4:fd:61:78:46:5e:a7:2e:9d:
         18:d0:db:24:7a:09:79:ea:f3:26:0d:41:a3:91:99:d9:a6:3b:
         f8:29:0c:37:dc:5d:37:34:00:db:6f:3f:2c:46:fb:22:29:af:
         e8:4a:e2:f5:ae:1b:df:7f:89:44:e2:15:7d:15:42:c7:04:d8:
         e1:ce:14:11:29:c5:b1:19:67:8b:96:20:ae:56:18:4f:df:86:
         16:cf:f9:47:64:77:ca:53:98:f6:6c:82:c2:1b:fb:26:9a:b8:
         5e:3d:52:83:65:a3:27:67:92:03:75:5c:79:fd:9a:da:4f:ed:
         bf:8e:d0:37:67:87:a4:0b:b1:db:86:9c:c5:7e:6f:2b:cd:30:
         c1:5e:23:dd
-----BEGIN CERTIFICATE-----
MIIEJjCCAw6gAwIBAgIEEAAA4DANBgkqhkiG9w0BAQsFADBEMQswCQYDVQQGEwJE
RTEPMA0GA1UECAwGSGVzc2VuMRQwEgYDVQQKDAtwcml2YWN5aWRlYTEOMAwGA1UE
AwwFQ0EwMDEwHhcNMTcwNDI3MTQxODU2WhcNMTgwNDI3MTQxODU2WjBUMQswCQYD
VQQGEwJERTEPMA0GA1UECAwGSGVzc2VuMRQwEgYDVQQKDAtwcml2YWN5aWRlYTEe
MBwGA1UEAwwVcmVxdWVzdGVyLmxvY2FsZG9tYWluMIIBIjANBgkqhkiG9w0BAQEF
AAOCAQ8AMIIBCgKCAQEAzb4UT/rOAT9CIhsdnK/dktJ/22y3PjlDQ2sTA/EF9Ad0
vHZpKAuvGY7X/OPNxljyyn8IbVP8BwJEJMa0NEyMBP4zDkDiILoCc1r39U9jbszG
tt9UHTc5fVE2Jl+93D+oi2uirrad1iHn30G4eigqaEjKqC3t4elGXlpybbSEOIeR
/ZQRCyiExsIvKvsB+TZ6CXXRM4g8c0FbyL+UiXCh8MC5LlBTHrEXZGn0LYHgqQ0O
Mum6VYqF8RtvSXm0f4jDDT5UiJs9HziMBPPuamMr9cbbtIOqxHhBOn1L4cg+ccob
YVnqxsTKMl7J6b8SKebGw2P+oFXaevFgmE0m7fpwLQIDAQABo4IBDjCCAQowCwYD
VR0PBAQDAgWgMAkGA1UdEwQCMAAwEQYJYIZIAYb4QgEBBAQDAgZAMDMGCWCGSAGG
+EIBDQQmFiRPcGVuU1NMIEdlbmVyYXRlZCBTZXJ2ZXIgQ2VydGlmaWNhdGUwHQYD
VR0OBBYEFFM/7V0JB7Nle6tFySRbCXeACpbtMHQGA1UdIwRtMGuAFPSnwMyRRq9k
85HyJ/jIsm+KhzJzoUikRjBEMQswCQYDVQQGEwJERTEPMA0GA1UECAwGSGVzc2Vu
MRQwEgYDVQQKDAtwcml2YWN5aWRlYTEOMAwGA1UEAwwFQ0EwMDGCCQD7yOusg80S
BzATBgNVHSUEDDAKBggrBgEFBQcDATANBgkqhkiG9w0BAQsFAAOCAQEAPtFr8Zyc
M/Vs8uY5BWYV6VKi1BQJkKRbNQH4attR5nN2WsCLl1uQjnT5EymC8SPEnyFRtRdK
4Pzpz9lN/Sq6qOA3yNSu30b/HQ/yxM83FAiu7vU5VlwYKVufTG+fzWAvdbUUK1v7
bL8woSIoDAR8XiLqnQphxP1heEZepy6dGNDbJHoJeerzJg1Bo5GZ2aY7+CkMN9xd
NzQA228/LEb7Iimv6Eri9a4b33+JROIVfRVCxwTY4c4UESnFsRlni5YgrlYYT9+G
Fs/5R2R3ylOY9myCwhv7Jpq4Xj1Sg2WjJ2eSA3Vcef2a2k/tv47QN2eHpAux24ac
xX5vK80wwV4j3Q==
-----END CERTIFICATE-----
