Certificate:
    Data:
        Version: 3 (0x2)
        Serial Number: 268435683 (0x100000e3)
    Signature Algorithm: sha256WithRSAEncryption
        Issuer: C=DE, ST=Hessen, O=privacyidea, CN=CA001
        Validity
            Not Before: Apr 27 15:14:46 2017 GMT
            Not After : Apr 27 15:14:46 2018 GMT
        Subject: C=DE, ST=Hessen, O=privacyidea, CN=usercert
        Subject Public Key Info:
            Public Key Algorithm: rsaEncryption
                Public-Key: (2048 bit)
                Modulus:
                    00:dc:2f:d1:5f:29:97:d4:7c:c3:53:c8:30:bd:4b:
                    67:70:2c:24:6b:b8:5e:eb:21:7a:48:12:56:7c:81:
                    5c:48:75:b6:68:eb:f6:f2:98:4e:50:51:d1:7f:6c:
                    73:f3:0a:a7:ae:be:48:5e:e5:d6:e1:d9:2a:7c:32:
                    6e:4e:fd:08:f6:5a:54:49:23:73:c3:b9:07:18:d1:
                    ef:b3:ac:f8:8a:dc:94:96:a4:90:3a:8e:74:df:e6:
                    0d:37:1b:bd:5b:b7:25:1a:56:39:da:6f:91:aa:5e:
                    1c:74:f3:f9:7c:14:01:83:12:65:76:c7:bb:fe:36:
                    5b:95:e9:72:65:83:ed:3e:98:30:71:fa:87:dd:a3:
                    36:5a:30:03:2e:26:e0:61:d1:bf:02:3f:b6:06:1f:
                    4a:89:28:1c:5c:a2:ff:4e:be:94:e6:8c:e0:da:82:
                    f1:9d:29:32:48:30:73:b4:04:f6:42:1e:be:f7:e2:
                    32:32:27:3c:9d:89:2f:70:3e:85:9a:6f:5c:c5:09:
                    c0:8c:32:2f:72:22:c9:d2:95:1f:b6:ac:72:60:72:
                    b7:82:4d:6b:ce:5b:e3:00:d0:d2:2f:58:c6:e0:10:
                    e5:51:ca:4d:3b:2e:e6:7e:ab:84:d6:56:f1:93:35:
                    a0:93:64:26:81:75:2f:91:b5:16:06:38:0b:db:cc:
                    2d:07
                Exponent: 65537 (0x10001)
        X509v3 extensions:
            X509v3 Key Usage: 
                Digital Signature, Key Encipherment
            X509v3 Basic Constraints: 
                CA:FALSE
            Netscape Cert Type: 
                SSL Server
            Netscape Comment: 
                OpenSSL Generated Server Certificate
            X509v3 Subject Key Identifier: 
                FC:14:D1:F0:4B:8D:00:90:F2:F5:B8:71:9E:4E:97:C3:92:54:AD:0B
            X509v3 Authority Key Identifier: 
                keyid:F4:A7:C0:CC:91:46:AF:64:F3:91:F2:27:F8:C8:B2:6F:8A:87:32:73
                DirName:/C=DE/ST=Hessen/O=privacyidea/CN=CA001
                serial:FB:C8:EB:AC:83:CD:12:07

            X509v3 Extended Key Usage: 
                TLS Web Server Authentication
    Signature Algorithm: sha256WithRSAEncryption
         99:12:26:53:d9:98:fb:d3:72:c6:7c:e5:77:4b:4e:94:8c:b2:
         b5:aa:42:87:08:96:98:1c:8f:69:70:b9:7a:cd:d0:18:36:7b:
         5c:5f:00:19:7c:aa:89:60:b6:ce:83:f5:e5:e9:88:57:eb:30:
         dd:31:02:3f:25:f7:6f:d2:81:3f:69:30:5a:58:51:82:09:26:
         f3:bd:df:4c:13:eb:72:c3:d1:4a:c9:8d:3c:98:d8:fc:7f:38:
         b5:29:31:82:e1:3a:62:8d:21:6a:61:06:72:6f:5a:35:64:14:
         ed:fd:83:d5:7c:df:99:15:63:75:3e:d6:02:00:be:c0:24:d5:
         2b:0f:6a:10:e4:7b:48:b0:12:3c:f4:b2:44:71:37:34:cf:92:
         32:c5:03:2f:ae:b8:1b:44:41:b5:92:3d:17:f3:85:dc:6a:d2:
         02:d9:f5:7f:21:c5:97:79:a7:fa:30:76:28:53:17:8c:31:8a:
         3e:a4:be:12:a6:ba:e7:e0:e7:0d:8c:f5:d4:28:b0:63:37:dd:
         0b:a3:24:27:ce:69:23:84:80:dd:65:e6:f7:e8:aa:be:09:3c:
         35:ab:6b:7f:1e:e6:ae:36:9c:f7:0f:f5:2e:3b:d0:12:f9:29:
         0b:e1:32:73:89:d8:51:60:fd:0c:ae:2e:98:b0:ec:b1:c0:0e:
         a7:6d:d0:ae
-----BEGIN CERTIFICATE-----
MIIEGTCCAwGgAwIBAgIEEAAA4zANBgkqhkiG9w0BAQsFADBEMQswCQYDVQQGEwJE
RTEPMA0GA1UECAwGSGVzc2VuMRQwEgYDVQQKDAtwcml2YWN5aWRlYTEOMAwGA1UE
AwwFQ0EwMDEwHhcNMTcwNDI3MTUxNDQ2WhcNMTgwNDI3MTUxNDQ2WjBHMQswCQYD
VQQGEwJERTEPMA0GA1UECAwGSGVzc2VuMRQwEgYDVQQKDAtwcml2YWN5aWRlYTER
MA8GA1UEAwwIdXNlcmNlcnQwggEiMA0GCSqGSIb3DQEBAQUAA4IBDwAwggEKAoIB
AQDcL9FfKZfUfMNTyDC9S2dwLCRruF7rIXpIElZ8gVxIdbZo6/bymE5QUdF/bHPz
Cqeuvkhe5dbh2Sp8Mm5O/Qj2WlRJI3PDuQcY0e+zrPiK3JSWpJA6jnTf5g03G71b
tyUaVjnab5GqXhx08/l8FAGDEmV2x7v+NluV6XJlg+0+mDBx+ofdozZaMAMuJuBh
0b8CP7YGH0qJKBxcov9OvpTmjODagvGdKTJIMHO0BPZCHr734jIyJzydiS9wPoWa
b1zFCcCMMi9yIsnSlR+2rHJgcreCTWvOW+MA0NIvWMbgEOVRyk07LuZ+q4TWVvGT
NaCTZCaBdS+RtRYGOAvbzC0HAgMBAAGjggEOMIIBCjALBgNVHQ8EBAMCBaAwCQYD
VR0TBAIwADARBglghkgBhvhCAQEEBAMCBkAwMwYJYIZIAYb4QgENBCYWJE9wZW5T
U0wgR2VuZXJhdGVkIFNlcnZlciBDZXJ0aWZpY2F0ZTAdBgNVHQ4EFgQU/BTR8EuN
AJDy9bhxnk6Xw5JUrQswdAYDVR0jBG0wa4AU9KfAzJFGr2TzkfIn+Miyb4qHMnOh
SKRGMEQxCzAJBgNVBAYTAkRFMQ8wDQYDVQQIDAZIZXNzZW4xFDASBgNVBAoMC3By
aXZhY3lpZGVhMQ4wDAYDVQQDDAVDQTAwMYIJAPvI66yDzRIHMBMGA1UdJQQMMAoG
CCsGAQUFBwMBMA0GCSqGSIb3DQEBCwUAA4IBAQCZEiZT2Zj703LGfOV3S06UjLK1
qkKHCJaYHI9pcLl6zdAYNntcXwAZfKqJYLbOg/Xl6YhX6zDdMQI/Jfdv0oE/aTBa
WFGCCSbzvd9ME+tyw9FKyY08mNj8fzi1KTGC4TpijSFqYQZyb1o1ZBTt/YPVfN+Z
FWN1PtYCAL7AJNUrD2oQ5HtIsBI89LJEcTc0z5IyxQMvrrgbREG1kj0X84XcatIC
2fV/IcWXeaf6MHYoUxeMMYo+pL4Sprrn4OcNjPXUKLBjN90LoyQnzmkjhIDdZeb3
6Kq+CTw1q2t/HuauNpz3D/UuO9AS+SkL4TJzidhRYP0Mri6YsOyxwA6nbdCu
-----END CERTIFICATE-----
