Certificate:
    Data:
        Version: 3 (0x2)
        Serial Number: 268435667 (0x100000d3)
    Signature Algorithm: sha256WithRSAEncryption
        Issuer: C=DE, ST=Hessen, O=privacyidea, CN=CA001
        Validity
            Not Before: Aug  7 12:15:09 2017 GMT
            Not After : Aug  7 12:15:09 2018 GMT
        Subject: CN=Steve Test/emailAddress=steve@openssl.org
        Subject Public Key Info:
            Public Key Algorithm: rsaEncryption
                Public-Key: (2048 bit)
                Modulus:
                    00:d2:81:89:20:51:48:0f:73:f4:11:32:24:d5:1f:
                    1c:fd:5c:f5:b6:e6:c5:f0:52:81:dc:d2:af:66:4a:
                    7c:93:31:61:5c:af:d1:6d:06:70:03:60:7c:72:0c:
                    88:dd:49:cd:9e:02:6c:d2:5a:d7:53:0f:f3:da:be:
                    69:64:b5:0f:0c:00:e3:b3:50:47:a3:b3:9b:ba:13:
                    50:d6:58:5a:4b:ab:39:e0:11:ca:0a:27:67:03:78:
                    22:66:6d:92:1e:1b:5c:49:ae:e6:6b:d1:8e:3b:9d:
                    06:d3:c6:ac:4d:53:43:10:ab:e8:96:c1:87:82:97:
                    99:8f:20:d3:99:12:37:31:84:e1:8a:ff:29:03:5f:
                    22:90:3e:7f:9b:e0:20:c1:ad:dc:ae:4c:39:1a:31:
                    96:17:02:8c:b2:d9:b4:0d:20:12:9b:7d:86:54:fd:
                    33:fd:c1:2a:62:46:f8:60:96:cf:6e:01:6f:22:df:
                    13:47:e7:97:ec:05:72:23:a3:62:f8:fa:ef:ac:9c:
                    72:f0:37:cb:2f:37:cf:90:a8:27:51:86:c6:d7:78:
                    08:8f:7e:25:a2:15:70:a2:fb:1c:b6:15:5e:a0:97:
                    8b:81:4c:09:28:8a:27:3b:94:bc:71:db:5b:71:37:
                    9a:2b:16:e0:6f:b5:c9:f5:4b:4f:20:ba:65:cf:af:
                    ad:ad
                Exponent: 65537 (0x10001)
        X509v3 extensions:
            X509v3 Key Usage: 
                Digital Signature, Key Encipherment
            X509v3 Basic Constraints: 
                CA:FALSE
            Netscape Cert Type: 
                SSL Server
            Netscape Comment: 
                OpenSSL Generated Server Certificate
            X509v3 Subject Key Identifier: 
                E5:25:6D:3E:AF:0D:DD:3F:4C:F2:45:19:39:D5:14:DB:7E:9C:C0:AD
            X509v3 Authority Key Identifier: 
                keyid:F4:A7:C0:CC:91:46:AF:64:F3:91:F2:27:F8:C8:B2:6F:8A:87:32:73
                DirName:/C=DE/ST=Hessen/O=privacyidea/CN=CA001
                serial:FB:C8:EB:AC:83:CD:12:07

            X509v3 Extended Key Usage: 
                TLS Web Server Authentication
    Signature Algorithm: sha256WithRSAEncryption
         2d:4c:12:e4:8f:0c:cb:7e:ac:5b:fd:56:a8:a4:fb:b5:b8:3b:
         7c:7a:1b:32:bd:f4:94:6a:ee:70:49:50:5f:82:e3:d3:42:f6:
         13:bc:56:70:19:f7:35:17:11:95:ae:2c:22:5f:10:1d:be:83:
         53:55:ab:3c:d8:2c:0e:d3:6b:46:b6:d3:4d:f9:43:38:74:b1:
         5c:0a:10:89:49:1f:00:69:b2:ec:e8:ef:ee:cc:32:b0:f7:28:
         82:49:0e:cd:99:0d:f4:a3:82:c6:f7:b5:29:4f:67:2f:96:e9:
         82:55:75:9d:f8:40:9b:23:7c:45:8e:b7:a4:7d:c0:8a:f5:a6:
         79:d9:11:fc:21:f9:a1:4a:04:ff:e2:03:56:59:81:18:10:9e:
         35:8e:ea:c2:7a:e8:50:43:70:8d:0b:94:16:87:99:d1:ea:8b:
         ba:7a:f3:75:52:6e:48:b6:ae:fa:3c:38:07:b0:cf:1b:39:ee:
         8c:33:79:73:ed:69:ad:1d:23:69:c4:bb:99:a4:1d:45:51:e4:
         ad:a3:42:f0:4f:54:4c:fb:23:32:39:c2:35:9e:b0:49:dc:04:
         20:5e:c4:e5:fc:08:45:25:2c:ba:c5:f6:28:df:7b:03:6b:21:
         e2:66:1c:72:16:ab:c3:9a:3f:38:51:38:5d:f1:86:13:17:08:
         25:94:22:7b
-----BEGIN CERTIFICATE-----
MIIECTCCAvGgAwIBAgIEEAAA0zANBgkqhkiG9w0BAQsFADBEMQswCQYDVQQGEwJE
RTEPMA0GA1UECAwGSGVzc2VuMRQwEgYDVQQKDAtwcml2YWN5aWRlYTEOMAwGA1UE
AwwFQ0EwMDEwHhcNMTcwODA3MTIxNTA5WhcNMTgwODA3MTIxNTA5WjA3MRMwEQYD
VQQDDApTdGV2ZSBUZXN0MSAwHgYJKoZIhvcNAQkBFhFzdGV2ZUBvcGVuc3NsLm9y
ZzCCASIwDQYJKoZIhvcNAQEBBQADggEPADCCAQoCggEBANKBiSBRSA9z9BEyJNUf
HP1c9bbmxfBSgdzSr2ZKfJMxYVyv0W0GcANgfHIMiN1JzZ4CbNJa11MP89q+aWS1
DwwA47NQR6Ozm7oTUNZYWkurOeARygonZwN4ImZtkh4bXEmu5mvRjjudBtPGrE1T
QxCr6JbBh4KXmY8g05kSNzGE4Yr/KQNfIpA+f5vgIMGt3K5MORoxlhcCjLLZtA0g
Ept9hlT9M/3BKmJG+GCWz24BbyLfE0fnl+wFciOjYvj676yccvA3yy83z5CoJ1GG
xtd4CI9+JaIVcKL7HLYVXqCXi4FMCSiKJzuUvHHbW3E3misW4G+1yfVLTyC6Zc+v
ra0CAwEAAaOCAQ4wggEKMAsGA1UdDwQEAwIFoDAJBgNVHRMEAjAAMBEGCWCGSAGG
+EIBAQQEAwIGQDAzBglghkgBhvhCAQ0EJhYkT3BlblNTTCBHZW5lcmF0ZWQgU2Vy
dmVyIENlcnRpZmljYXRlMB0GA1UdDgQWBBTlJW0+rw3dP0zyRRk51RTbfpzArTB0
BgNVHSMEbTBrgBT0p8DMkUavZPOR8if4yLJviocyc6FIpEYwRDELMAkGA1UEBhMC
REUxDzANBgNVBAgMBkhlc3NlbjEUMBIGA1UECgwLcHJpdmFjeWlkZWExDjAMBgNV
BAMMBUNBMDAxggkA+8jrrIPNEgcwEwYDVR0lBAwwCgYIKwYBBQUHAwEwDQYJKoZI
hvcNAQELBQADggEBAC1MEuSPDMt+rFv9Vqik+7W4O3x6GzK99JRq7nBJUF+C49NC
9hO8VnAZ9zUXEZWuLCJfEB2+g1NVqzzYLA7Ta0a20035Qzh0sVwKEIlJHwBpsuzo
7+7MMrD3KIJJDs2ZDfSjgsb3tSlPZy+W6YJVdZ34QJsjfEWOt6R9wIr1pnnZEfwh
+aFKBP/iA1ZZgRgQnjWO6sJ66FBDcI0LlBaHmdHqi7p683VSbki2rvo8OAewzxs5
7owzeXPtaa0dI2nEu5mkHUVR5K2jQvBPVEz7IzI5wjWesEncBCBexOX8CEUlLLrF
9ijfewNrIeJmHHIWq8OaPzhROF3xhhMXCCWUIns=
-----END CERTIFICATE-----
