Certificate:
    Data:
        Version: 3 (0x2)
        Serial Number: 268435669 (0x100000d5)
    Signature Algorithm: sha256WithRSAEncryption
        Issuer: C=DE, ST=Hessen, O=privacyidea, CN=CA001
        Validity
            Not Before: Aug  7 12:18:33 2017 GMT
            Not After : Aug  7 12:18:33 2018 GMT
        Subject: C=DE, ST=Hessen, O=privacyidea, CN=requester.localdomain
        Subject Public Key Info:
            Public Key Algorithm: rsaEncryption
                Public-Key: (2048 bit)
                Modulus:
                    00:cd:be:14:4f:fa:ce:01:3f:42:22:1b:1d:9c:af:
                    dd:92:d2:7f:db:6c:b7:3e:39:43:43:6b:13:03:f1:
                    05:f4:07:74:bc:76:69:28:0b:af:19:8e:d7:fc:e3:
                    cd:c6:58:f2:ca:7f:08:6d:53:fc:07:02:44:24:c6:
                    b4:34:4c:8c:04:fe:33:0e:40:e2:20:ba:02:73:5a:
                    f7:f5:4f:63:6e:cc:c6:b6:df:54:1d:37:39:7d:51:
                    36:26:5f:bd:dc:3f:a8:8b:6b:a2:ae:b6:9d:d6:21:
                    e7:df:41:b8:7a:28:2a:68:48:ca:a8:2d:ed:e1:e9:
                    46:5e:5a:72:6d:b4:84:38:87:91:fd:94:11:0b:28:
                    84:c6:c2:2f:2a:fb:01:f9:36:7a:09:75:d1:33:88:
                    3c:73:41:5b:c8:bf:94:89:70:a1:f0:c0:b9:2e:50:
                    53:1e:b1:17:64:69:f4:2d:81:e0:a9:0d:0e:32:e9:
                    ba:55:8a:85:f1:1b:6f:49:79:b4:7f:88:c3:0d:3e:
                    54:88:9b:3d:1f:38:8c:04:f3:ee:6a:63:2b:f5:c6:
                    db:b4:83:aa:c4:78:41:3a:7d:4b:e1:c8:3e:71:ca:
                    1b:61:59:ea:c6:c4:ca:32:5e:c9:e9:bf:12:29:e6:
                    c6:c3:63:fe:a0:55:da:7a:f1:60:98:4d:26:ed:fa:
                    70:2d
                Exponent: 65537 (0x10001)
        X509v3 extensions:
            X509v3 Key Usage: 
                Digital Signature, Key Encipherment
            X509v3 Basic Constraints: 
                CA:FALSE
            Netscape Cert Type: 
                SSL Server
            Netscape Comment: 
                OpenSSL Generated Server Certificate
            X509v3 Subject Key Identifier: 
                53:3F:ED:5D:09:07:B3:65:7B:AB:45:C9:24:5B:09:77:80:0A:96:ED
            X509v3 Authority Key Identifier: 
                keyid:F4:A7:C0:CC:91:46:AF:64:F3:91:F2:27:F8:C8:B2:6F:8A:87:32:73
                DirName:/C=DE/ST=Hessen/O=privacyidea/CN=CA001
                serial:FB:C8:EB:AC:83:CD:12:07

            X509v3 Extended Key Usage: 
                TLS Web Server Authentication
    Signature Algorithm: sha256WithRSAEncryption
         a2:90:1a:33:62:1b:b5:cc:0e:e1:3e:31:8d:db:75:97:c4:7c:
         f7:a0:9a:d7:f8:ef:a8:96:b7:f4:86:48:14:f7:b5:40:f3:6f:
         0e:30:a8:4a:45:fd:fb:cd:44:0e:2b:9b:9e:76:4b:d8:b2:e4:
         d8:14:44:8e:0f:c1:84:1e:e2:b5:71:1e:e0:08:10:4b:82:c2:
         6c:01:3f:5d:49:0b:69:61:98:4a:af:20:a9:f0:83:45:90:3c:
         07:19:d1:9f:10:2e:25:80:e9:fb:3f:f5:56:45:a3:b3:fe:69:
         cf:39:88:1e:e3:0f:47:a6:7d:64:69:5c:ae:f8:60:cb:62:ad:
         b1:fd:d5:9d:af:29:44:51:e5:56:6d:9a:7c:35:bb:cd:2e:c8:
         6b:12:a7:e0:63:eb:75:bd:5c:02:4a:cc:38:df:35:df:51:96:
         2f:38:ee:cf:98:27:53:f1:ef:b7:69:c6:08:a0:ad:ba:2d:52:
         ad:fc:f1:10:ec:18:96:66:b4:31:4c:54:37:bf:88:da:82:81:
         c0:eb:5c:4b:54:95:f0:12:37:16:24:4a:4f:f4:65:82:1b:e9:
         34:51:5a:2f:a4:18:10:13:71:cd:58:97:08:97:33:95:3a:bd:
         17:30:d8:ba:5f:32:f7:bb:3f:28:7c:17:ea:87:1d:82:8e:31:
         8a:05:25:c8
-----BEGIN CERTIFICATE-----
MIIEJjCCAw6gAwIBAgIEEAAA1TANBgkqhkiG9w0BAQsFADBEMQswCQYDVQQGEwJE
RTEPMA0GA1UECAwGSGVzc2VuMRQwEgYDVQQKDAtwcml2YWN5aWRlYTEOMAwGA1UE
AwwFQ0EwMDEwHhcNMTcwODA3MTIxODMzWhcNMTgwODA3MTIxODMzWjBUMQswCQYD
VQQGEwJERTEPMA0GA1UECAwGSGVzc2VuMRQwEgYDVQQKDAtwcml2YWN5aWRlYTEe
MBwGA1UEAwwVcmVxdWVzdGVyLmxvY2FsZG9tYWluMIIBIjANBgkqhkiG9w0BAQEF
AAOCAQ8AMIIBCgKCAQEAzb4UT/rOAT9CIhsdnK/dktJ/22y3PjlDQ2sTA/EF9Ad0
vHZpKAuvGY7X/OPNxljyyn8IbVP8BwJEJMa0NEyMBP4zDkDiILoCc1r39U9jbszG
tt9UHTc5fVE2Jl+93D+oi2uirrad1iHn30G4eigqaEjKqC3t4elGXlpybbSEOIeR
/ZQRCyiExsIvKvsB+TZ6CXXRM4g8c0FbyL+UiXCh8MC5LlBTHrEXZGn0LYHgqQ0O
Mum6VYqF8RtvSXm0f4jDDT5UiJs9HziMBPPuamMr9cbbtIOqxHhBOn1L4cg+ccob
YVnqxsTKMl7J6b8SKebGw2P+oFXaevFgmE0m7fpwLQIDAQABo4IBDjCCAQowCwYD
VR0PBAQDAgWgMAkGA1UdEwQCMAAwEQYJYIZIAYb4QgEBBAQDAgZAMDMGCWCGSAGG
+EIBDQQmFiRPcGVuU1NMIEdlbmVyYXRlZCBTZXJ2ZXIgQ2VydGlmaWNhdGUwHQYD
VR0OBBYEFFM/7V0JB7Nle6tFySRbCXeACpbtMHQGA1UdIwRtMGuAFPSnwMyRRq9k
85HyJ/jIsm+KhzJzoUikRjBEMQswCQYDVQQGEwJERTEPMA0GA1UECAwGSGVzc2Vu
MRQwEgYDVQQKDAtwcml2YWN5aWRlYTEOMAwGA1UEAwwFQ0EwMDGCCQD7yOusg80S
BzATBgNVHSUEDDAKBggrBgEFBQcDATANBgkqhkiG9w0BAQsFAAOCAQEAopAaM2Ib
tcwO4T4xjdt1l8R896Ca1/jvqJa39IZIFPe1QPNvDjCoSkX9+81EDiubnnZL2LLk
2BREjg/BhB7itXEe4AgQS4LCbAE/XUkLaWGYSq8gqfCDRZA8BxnRnxAuJYDp+z/1
VkWjs/5pzzmIHuMPR6Z9ZGlcrvhgy2Ktsf3Vna8pRFHlVm2afDW7zS7IaxKn4GPr
db1cAkrMON8131GWLzjuz5gnU/Hvt2nGCKCtui1SrfzxEOwYlma0MUxUN7+I2oKB
wOtcS1SV8BI3FiRKT/RlghvpNFFaL6QYEBNxzViXCJczlTq9FzDYul8y97s/KHwX
6ocdgo4xigUlyA==
-----END CERTIFICATE-----
