Certificate:
    Data:
        Version: 3 (0x2)
        Serial Number: 268435668 (0x100000d4)
    Signature Algorithm: sha256WithRSAEncryption
        Issuer: C=DE, ST=Hessen, O=privacyidea, CN=CA001
        Validity
            Not Before: Aug 29 12:04:04 2017 GMT
            Not After : Sep 18 12:04:04 2019 GMT
        Subject: CN=Steve Test/emailAddress=steve@openssl.org
        Subject Public Key Info:
            Public Key Algorithm: rsaEncryption
                Public-Key: (2048 bit)
                Modulus:
                    00:d2:81:89:20:51:48:0f:73:f4:11:32:24:d5:1f:
                    1c:fd:5c:f5:b6:e6:c5:f0:52:81:dc:d2:af:66:4a:
                    7c:93:31:61:5c:af:d1:6d:06:70:03:60:7c:72:0c:
                    88:dd:49:cd:9e:02:6c:d2:5a:d7:53:0f:f3:da:be:
                    69:64:b5:0f:0c:00:e3:b3:50:47:a3:b3:9b:ba:13:
                    50:d6:58:5a:4b:ab:39:e0:11:ca:0a:27:67:03:78:
                    22:66:6d:92:1e:1b:5c:49:ae:e6:6b:d1:8e:3b:9d:
                    06:d3:c6:ac:4d:53:43:10:ab:e8:96:c1:87:82:97:
                    99:8f:20:d3:99:12:37:31:84:e1:8a:ff:29:03:5f:
                    22:90:3e:7f:9b:e0:20:c1:ad:dc:ae:4c:39:1a:31:
                    96:17:02:8c:b2:d9:b4:0d:20:12:9b:7d:86:54:fd:
                    33:fd:c1:2a:62:46:f8:60:96:cf:6e:01:6f:22:df:
                    13:47:e7:97:ec:05:72:23:a3:62:f8:fa:ef:ac:9c:
                    72:f0:37:cb:2f:37:cf:90:a8:27:51:86:c6:d7:78:
                    08:8f:7e:25:a2:15:70:a2:fb:1c:b6:15:5e:a0:97:
                    8b:81:4c:09:28:8a:27:3b:94:bc:71:db:5b:71:37:
                    9a:2b:16:e0:6f:b5:c9:f5:4b:4f:20:ba:65:cf:af:
                    ad:ad
                Exponent: 65537 (0x10001)
        X509v3 extensions:
            X509v3 Key Usage: 
                Digital Signature, Key Encipherment
            X509v3 Basic Constraints: 
                CA:FALSE
            Netscape Cert Type: 
                SSL Server
            Netscape Comment: 
                OpenSSL Generated Server Certificate
            X509v3 Subject Key Identifier: 
                E5:25:6D:3E:AF:0D:DD:3F:4C:F2:45:19:39:D5:14:DB:7E:9C:C0:AD
            X509v3 Authority Key Identifier: 
                keyid:F4:A7:C0:CC:91:46:AF:64:F3:91:F2:27:F8:C8:B2:6F:8A:87:32:73
                DirName:/C=DE/ST=Hessen/O=privacyidea/CN=CA001
                serial:FB:C8:EB:AC:83:CD:12:07

            X509v3 Extended Key Usage: 
                TLS Web Server Authentication
    Signature Algorithm: sha256WithRSAEncryption
         b2:31:79:68:8a:d8:15:1e:89:2c:91:27:b0:d7:cb:17:e1:48:
         cf:79:0b:62:5b:b8:dd:c0:ed:0c:f8:1d:50:80:ca:51:a8:ab:
         56:75:7d:2a:e2:2b:37:5a:b4:2c:ca:f2:81:a2:4d:53:57:90:
         eb:68:b8:7a:0c:db:1d:7f:7c:d3:a1:8b:72:8f:81:99:b4:38:
         a0:1c:9e:cb:6a:fb:0d:d9:69:5c:0f:42:74:29:9f:f8:5f:9a:
         f0:6a:19:09:74:cc:5c:ba:5d:f3:db:13:87:15:f1:44:af:67:
         16:01:f2:22:d4:2c:55:75:a1:43:39:18:d4:a9:58:65:97:66:
         39:fb:0e:b7:2c:b8:80:62:ed:ab:ee:30:0e:81:2b:c0:4a:a0:
         e4:04:16:af:b1:ce:49:ef:8d:dc:68:5b:72:d1:98:b4:36:49:
         d0:11:e7:be:d8:7d:b7:98:20:f0:7d:4a:e1:16:1b:a6:2c:31:
         6b:f5:9d:6f:a4:fb:04:3b:ac:dd:a4:51:79:c0:32:c8:b2:7e:
         f5:91:33:f0:50:b7:94:21:ec:6c:9e:56:74:99:c3:35:3c:80:
         39:cd:f6:77:f1:8b:e5:e6:6b:1f:f3:61:26:1e:d0:20:81:55:
         89:5c:73:1e:3b:ba:f3:a3:a7:c4:ee:5e:fd:47:26:36:5b:00:
         f0:50:1a:69
-----BEGIN CERTIFICATE-----
MIIECTCCAvGgAwIBAgIEEAAA1DANBgkqhkiG9w0BAQsFADBEMQswCQYDVQQGEwJE
RTEPMA0GA1UECAwGSGVzc2VuMRQwEgYDVQQKDAtwcml2YWN5aWRlYTEOMAwGA1UE
AwwFQ0EwMDEwHhcNMTcwODI5MTIwNDA0WhcNMTkwOTE4MTIwNDA0WjA3MRMwEQYD
VQQDDApTdGV2ZSBUZXN0MSAwHgYJKoZIhvcNAQkBFhFzdGV2ZUBvcGVuc3NsLm9y
ZzCCASIwDQYJKoZIhvcNAQEBBQADggEPADCCAQoCggEBANKBiSBRSA9z9BEyJNUf
HP1c9bbmxfBSgdzSr2ZKfJMxYVyv0W0GcANgfHIMiN1JzZ4CbNJa11MP89q+aWS1
DwwA47NQR6Ozm7oTUNZYWkurOeARygonZwN4ImZtkh4bXEmu5mvRjjudBtPGrE1T
QxCr6JbBh4KXmY8g05kSNzGE4Yr/KQNfIpA+f5vgIMGt3K5MORoxlhcCjLLZtA0g
Ept9hlT9M/3BKmJG+GCWz24BbyLfE0fnl+wFciOjYvj676yccvA3yy83z5CoJ1GG
xtd4CI9+JaIVcKL7HLYVXqCXi4FMCSiKJzuUvHHbW3E3misW4G+1yfVLTyC6Zc+v
ra0CAwEAAaOCAQ4wggEKMAsGA1UdDwQEAwIFoDAJBgNVHRMEAjAAMBEGCWCGSAGG
+EIBAQQEAwIGQDAzBglghkgBhvhCAQ0EJhYkT3BlblNTTCBHZW5lcmF0ZWQgU2Vy
dmVyIENlcnRpZmljYXRlMB0GA1UdDgQWBBTlJW0+rw3dP0zyRRk51RTbfpzArTB0
BgNVHSMEbTBrgBT0p8DMkUavZPOR8if4yLJviocyc6FIpEYwRDELMAkGA1UEBhMC
REUxDzANBgNVBAgMBkhlc3NlbjEUMBIGA1UECgwLcHJpdmFjeWlkZWExDjAMBgNV
BAMMBUNBMDAxggkA+8jrrIPNEgcwEwYDVR0lBAwwCgYIKwYBBQUHAwEwDQYJKoZI
hvcNAQELBQADggEBALIxeWiK2BUeiSyRJ7DXyxfhSM95C2JbuN3A7Qz4HVCAylGo
q1Z1fSriKzdatCzK8oGiTVNXkOtouHoM2x1/fNOhi3KPgZm0OKAcnstq+w3ZaVwP
QnQpn/hfmvBqGQl0zFy6XfPbE4cV8USvZxYB8iLULFV1oUM5GNSpWGWXZjn7Drcs
uIBi7avuMA6BK8BKoOQEFq+xzknvjdxoW3LRmLQ2SdAR577YfbeYIPB9SuEWG6Ys
MWv1nW+k+wQ7rN2kUXnAMsiyfvWRM/BQt5Qh7GyeVnSZwzU8gDnN9nfxi+Xmax/z
YSYe0CCBVYlccx47uvOjp8TuXv1HJjZbAPBQGmk=
-----END CERTIFICATE-----
