Certificate:
    Data:
        Version: 3 (0x2)
        Serial Number: 268435670 (0x100000d6)
    Signature Algorithm: sha256WithRSAEncryption
        Issuer: C=DE, ST=Hessen, O=privacyidea, CN=CA001
        Validity
            Not Before: Aug 29 12:08:08 2017 GMT
            Not After : Aug 29 12:08:08 2018 GMT
        Subject: OU=realm1, CN=cornelius/emailAddress=user@localhost.localdomain
        Subject Public Key Info:
            Public Key Algorithm: rsaEncryption
                Public-Key: (2048 bit)
                Modulus:
                    00:d3:33:90:1d:a0:9f:8e:bf:79:0f:3a:d2:de:05:
                    42:c8:91:90:e5:fd:e5:fc:da:4b:20:2e:16:8d:c3:
                    c9:4d:3d:40:c2:99:95:62:74:be:56:b6:78:97:d0:
                    f5:8b:07:d7:e3:e4:15:49:59:b5:7f:d9:93:f6:be:
                    89:e6:9e:5a:4b:90:3c:cd:43:6a:75:ba:0c:5f:53:
                    6a:19:7b:58:1d:44:81:10:3a:5c:06:15:ef:a9:44:
                    36:56:8c:74:3e:58:22:c8:d0:63:b9:67:82:b0:83:
                    78:ba:71:f2:db:a0:32:a9:cb:ec:f2:05:58:ee:7b:
                    7a:c5:c4:1a:10:dd:40:cd:b0:43:15:1b:58:48:43:
                    ff:3b:81:69:00:35:fa:8f:9d:ac:f5:a5:60:41:5d:
                    3d:57:4a:a0:8d:25:68:a6:a7:23:d9:f5:01:81:a3:
                    82:ca:e8:49:c9:99:8b:82:bb:94:50:17:e2:bd:3b:
                    ea:9b:8c:8b:46:e7:22:f8:51:50:0c:39:74:1d:71:
                    d8:29:10:0f:2f:ab:00:fc:77:d5:35:5c:f7:45:fe:
                    e6:eb:2e:56:7c:2c:29:12:e1:47:80:d7:48:82:5c:
                    30:c4:11:83:c6:57:a0:ea:b8:c0:bd:46:bc:60:dc:
                    c6:f5:bb:3a:7b:44:98:34:2d:ab:d6:b3:74:2e:1b:
                    cf:61
                Exponent: 65537 (0x10001)
        X509v3 extensions:
            X509v3 Key Usage: 
                Digital Signature, Key Encipherment
            X509v3 Basic Constraints: 
                CA:FALSE
            Netscape Cert Type: 
                SSL Server
            Netscape Comment: 
                OpenSSL Generated Server Certificate
            X509v3 Subject Key Identifier: 
                82:79:02:E7:16:5F:9B:26:C5:D6:F0:2A:44:67:2A:51:2F:DD:4E:B3
            X509v3 Authority Key Identifier: 
                keyid:F4:A7:C0:CC:91:46:AF:64:F3:91:F2:27:F8:C8:B2:6F:8A:87:32:73
                DirName:/C=DE/ST=Hessen/O=privacyidea/CN=CA001
                serial:FB:C8:EB:AC:83:CD:12:07

            X509v3 Extended Key Usage: 
                TLS Web Server Authentication
    Signature Algorithm: sha256WithRSAEncryption
         b8:05:fa:e8:52:10:12:9f:bc:98:d8:8d:0d:c7:7f:d8:e5:5d:
         85:f8:fc:68:3b:a3:1e:c0:6f:d4:59:00:5f:61:6f:35:11:83:
         34:ae:c4:84:8c:cf:74:d1:3e:d6:5e:1c:2f:f4:51:bd:6e:e3:
         91:40:bb:4b:77:47:b4:54:b2:2f:2a:e7:97:a4:16:0d:1c:b2:
         86:f8:74:f4:1c:1b:27:f7:18:88:ee:33:95:14:27:c8:83:ae:
         25:92:7c:1d:80:19:9e:2c:74:76:e8:0e:a5:b4:d7:36:f8:04:
         08:21:cd:5e:97:e7:1d:d1:3c:6c:a9:d1:ce:cd:03:bc:00:46:
         a2:36:81:dc:d2:3b:35:29:b1:0e:72:23:49:ef:8d:49:8b:67:
         59:9f:47:85:fe:be:4e:56:40:27:3d:5e:cc:10:33:7f:41:df:
         ec:9c:7a:74:8e:63:ec:ae:6c:f0:45:74:b5:27:fe:2e:91:61:
         60:c4:f7:5f:f1:ac:6b:bd:c6:c7:3b:a2:9b:05:48:3d:29:d7:
         45:d6:76:79:6f:d3:96:5d:3f:95:f6:51:21:73:ef:84:cc:f7:
         81:b5:04:c3:1a:de:de:30:e9:96:7c:89:51:24:4c:7a:5c:41:
         87:6c:5c:4c:74:c6:56:e1:4f:ea:ee:5e:48:24:f2:be:3c:70:
         6f:c5:15:6b
-----BEGIN CERTIFICATE-----
MIIEIjCCAwqgAwIBAgIEEAAA1jANBgkqhkiG9w0BAQsFADBEMQswCQYDVQQGEwJE
RTEPMA0GA1UECAwGSGVzc2VuMRQwEgYDVQQKDAtwcml2YWN5aWRlYTEOMAwGA1UE
AwwFQ0EwMDEwHhcNMTcwODI5MTIwODA4WhcNMTgwODI5MTIwODA4WjBQMQ8wDQYD
VQQLDAZyZWFsbTExEjAQBgNVBAMMCWNvcm5lbGl1czEpMCcGCSqGSIb3DQEJARYa
dXNlckBsb2NhbGhvc3QubG9jYWxkb21haW4wggEiMA0GCSqGSIb3DQEBAQUAA4IB
DwAwggEKAoIBAQDTM5AdoJ+Ov3kPOtLeBULIkZDl/eX82ksgLhaNw8lNPUDCmZVi
dL5WtniX0PWLB9fj5BVJWbV/2ZP2vonmnlpLkDzNQ2p1ugxfU2oZe1gdRIEQOlwG
Fe+pRDZWjHQ+WCLI0GO5Z4Kwg3i6cfLboDKpy+zyBVjue3rFxBoQ3UDNsEMVG1hI
Q/87gWkANfqPnaz1pWBBXT1XSqCNJWimpyPZ9QGBo4LK6EnJmYuCu5RQF+K9O+qb
jItG5yL4UVAMOXQdcdgpEA8vqwD8d9U1XPdF/ubrLlZ8LCkS4UeA10iCXDDEEYPG
V6DquMC9Rrxg3Mb1uzp7RJg0LavWs3QuG89hAgMBAAGjggEOMIIBCjALBgNVHQ8E
BAMCBaAwCQYDVR0TBAIwADARBglghkgBhvhCAQEEBAMCBkAwMwYJYIZIAYb4QgEN
BCYWJE9wZW5TU0wgR2VuZXJhdGVkIFNlcnZlciBDZXJ0aWZpY2F0ZTAdBgNVHQ4E
FgQUgnkC5xZfmybF1vAqRGcqUS/dTrMwdAYDVR0jBG0wa4AU9KfAzJFGr2TzkfIn
+Miyb4qHMnOhSKRGMEQxCzAJBgNVBAYTAkRFMQ8wDQYDVQQIDAZIZXNzZW4xFDAS
BgNVBAoMC3ByaXZhY3lpZGVhMQ4wDAYDVQQDDAVDQTAwMYIJAPvI66yDzRIHMBMG
A1UdJQQMMAoGCCsGAQUFBwMBMA0GCSqGSIb3DQEBCwUAA4IBAQC4BfroUhASn7yY
2I0Nx3/Y5V2F+PxoO6MewG/UWQBfYW81EYM0rsSEjM900T7WXhwv9FG9buORQLtL
d0e0VLIvKueXpBYNHLKG+HT0HBsn9xiI7jOVFCfIg64lknwdgBmeLHR26A6ltNc2
+AQIIc1el+cd0TxsqdHOzQO8AEaiNoHc0js1KbEOciNJ741Ji2dZn0eF/r5OVkAn
PV7MEDN/Qd/snHp0jmPsrmzwRXS1J/4ukWFgxPdf8axrvcbHO6KbBUg9KddF1nZ5
b9OWXT+V9lEhc++EzPeBtQTDGt7eMOmWfIlRJEx6XEGHbFxMdMZW4U/q7l5IJPK+
PHBvxRVr
-----END CERTIFICATE-----
