Certificate:
    Data:
        Version: 3 (0x2)
        Serial Number: 268435671 (0x100000d7)
    Signature Algorithm: sha256WithRSAEncryption
        Issuer: C=DE, ST=Hessen, O=privacyidea, CN=CA001
        Validity
            Not Before: Aug 29 12:16:36 2017 GMT
            Not After : Aug 29 12:16:36 2018 GMT
        Subject: CN=selfservice,CN=user,O=realm1/emailAddress=meine
        Subject Public Key Info:
            Public Key Algorithm: rsaEncryption
                Public-Key: (2048 bit)
                Modulus:
                    00:cf:3c:d4:33:0e:12:c4:e6:da:cd:b6:56:a1:1c:
                    26:bb:26:1c:8a:4a:73:a8:58:8a:b6:1e:b3:8b:99:
                    d2:1d:07:c2:92:89:79:c0:69:d8:c8:df:28:61:98:
                    1e:b3:fe:ae:2b:bd:78:a9:f7:6e:47:dc:a3:a0:16:
                    8c:85:02:c1:4e:92:fd:72:6e:f0:c8:03:29:9b:b8:
                    00:6e:c0:83:95:c8:34:20:36:9c:b3:e5:e4:e6:76:
                    73:a3:1a:ad:40:96:e0:53:54:00:ec:76:79:9a:c6:
                    0d:7e:b6:bd:29:ec:83:f3:cb:89:a4:cb:6c:00:ba:
                    0c:c5:78:0f:ff:69:b8:94:f4:04:70:43:3f:d8:9e:
                    d7:a7:fb:5d:ce:75:8e:da:e7:c4:07:b1:9d:de:6f:
                    88:4b:b6:4d:9a:cf:f9:bc:fa:9f:cd:32:6d:f6:3a:
                    0b:0d:23:42:78:ec:97:42:bf:0e:4d:60:56:e1:d3:
                    02:f2:19:cb:84:57:90:e5:70:a1:a2:83:35:86:e2:
                    da:86:9f:f9:8a:c4:79:b3:52:28:da:cb:bb:34:ca:
                    d3:da:91:4a:cf:8d:76:a2:b2:6b:9b:f9:96:fd:09:
                    2a:da:11:23:4d:f0:cb:d6:b2:b1:0e:12:6c:9a:19:
                    65:98:87:ca:e4:ee:24:ce:44:ac:90:8f:9d:1b:c5:
                    2a:9d
                Exponent: 65537 (0x10001)
        X509v3 extensions:
            X509v3 Key Usage: 
                Digital Signature, Key Encipherment
            X509v3 Basic Constraints: 
                CA:FALSE
            Netscape Cert Type: 
                SSL Server
            Netscape Comment: 
                OpenSSL Generated Server Certificate
            X509v3 Subject Key Identifier: 
                4D:07:90:AD:FF:1D:0D:E7:1A:DD:D6:2E:FA:BA:34:CB:AA:1F:24:C6
            X509v3 Authority Key Identifier: 
                keyid:F4:A7:C0:CC:91:46:AF:64:F3:91:F2:27:F8:C8:B2:6F:8A:87:32:73
                DirName:/C=DE/ST=Hessen/O=privacyidea/CN=CA001
                serial:FB:C8:EB:AC:83:CD:12:07

            X509v3 Extended Key Usage: 
                TLS Web Server Authentication
    Signature Algorithm: sha256WithRSAEncryption
         46:f7:fc:30:94:0f:3d:45:c2:84:94:1f:1d:dd:e9:b4:fb:d3:
         33:aa:3a:2d:22:d7:6d:51:76:7f:84:1b:de:68:0b:9d:ef:1c:
         8a:98:ac:25:80:2a:e9:b6:40:bb:56:53:89:46:94:c6:1d:94:
         78:cf:40:9c:a7:c1:4d:27:18:9c:32:bd:15:57:ac:b9:d0:3c:
         32:61:eb:35:45:25:68:ac:2c:56:b5:37:38:14:81:c0:f0:28:
         93:4f:64:c4:3f:83:90:16:50:8a:2f:cb:a0:c2:f5:13:97:63:
         27:9a:11:b0:d8:12:88:ae:37:ec:a8:5d:3a:4e:08:3a:bc:48:
         99:e2:a0:53:45:a7:6b:cb:05:ff:b4:e4:85:17:5b:cc:f0:40:
         65:a4:69:49:c3:2b:83:36:e2:ca:ce:b0:79:3e:f4:b2:8c:f8:
         c5:ed:3e:4f:49:89:e7:e9:ae:bf:91:db:17:d6:1b:bb:19:3d:
         83:b1:15:14:1c:75:29:a6:e6:8f:32:a2:30:6e:e7:41:c4:80:
         83:c3:6f:f8:be:b4:60:86:56:32:38:81:c2:b9:15:e2:e4:e1:
         83:04:25:45:d2:f4:96:aa:fd:60:79:a7:91:c5:a8:c2:26:2f:
         a0:d5:80:44:b2:3e:cb:f9:03:e9:64:5f:41:dc:03:0b:ed:7c:
         c8:df:bb:65
-----BEGIN CERTIFICATE-----
MIIEDzCCAvegAwIBAgIEEAAA1zANBgkqhkiG9w0BAQsFADBEMQswCQYDVQQGEwJE
RTEPMA0GA1UECAwGSGVzc2VuMRQwEgYDVQQKDAtwcml2YWN5aWRlYTEOMAwGA1UE
AwwFQ0EwMDEwHhcNMTcwODI5MTIxNjM2WhcNMTgwODI5MTIxNjM2WjA9MSUwIwYD
VQQDDBxzZWxmc2VydmljZSxDTj11c2VyLE89cmVhbG0xMRQwEgYJKoZIhvcNAQkB
FgVtZWluZTCCASIwDQYJKoZIhvcNAQEBBQADggEPADCCAQoCggEBAM881DMOEsTm
2s22VqEcJrsmHIpKc6hYirYes4uZ0h0HwpKJecBp2MjfKGGYHrP+riu9eKn3bkfc
o6AWjIUCwU6S/XJu8MgDKZu4AG7Ag5XINCA2nLPl5OZ2c6MarUCW4FNUAOx2eZrG
DX62vSnsg/PLiaTLbAC6DMV4D/9puJT0BHBDP9ie16f7Xc51jtrnxAexnd5viEu2
TZrP+bz6n80ybfY6Cw0jQnjsl0K/Dk1gVuHTAvIZy4RXkOVwoaKDNYbi2oaf+YrE
ebNSKNrLuzTK09qRSs+NdqKya5v5lv0JKtoRI03wy9aysQ4SbJoZZZiHyuTuJM5E
rJCPnRvFKp0CAwEAAaOCAQ4wggEKMAsGA1UdDwQEAwIFoDAJBgNVHRMEAjAAMBEG
CWCGSAGG+EIBAQQEAwIGQDAzBglghkgBhvhCAQ0EJhYkT3BlblNTTCBHZW5lcmF0
ZWQgU2VydmVyIENlcnRpZmljYXRlMB0GA1UdDgQWBBRNB5Ct/x0N5xrd1i76ujTL
qh8kxjB0BgNVHSMEbTBrgBT0p8DMkUavZPOR8if4yLJviocyc6FIpEYwRDELMAkG
A1UEBhMCREUxDzANBgNVBAgMBkhlc3NlbjEUMBIGA1UECgwLcHJpdmFjeWlkZWEx
DjAMBgNVBAMMBUNBMDAxggkA+8jrrIPNEgcwEwYDVR0lBAwwCgYIKwYBBQUHAwEw
DQYJKoZIhvcNAQELBQADggEBAEb3/DCUDz1FwoSUHx3d6bT70zOqOi0i121Rdn+E
G95oC53vHIqYrCWAKum2QLtWU4lGlMYdlHjPQJynwU0nGJwyvRVXrLnQPDJh6zVF
JWisLFa1NzgUgcDwKJNPZMQ/g5AWUIovy6DC9ROXYyeaEbDYEoiuN+yoXTpOCDq8
SJnioFNFp2vLBf+05IUXW8zwQGWkaUnDK4M24srOsHk+9LKM+MXtPk9Jiefprr+R
2xfWG7sZPYOxFRQcdSmm5o8yojBu50HEgIPDb/i+tGCGVjI4gcK5FeLk4YMEJUXS
9Jaq/WB5p5HFqMImL6DVgESyPsv5A+lkX0HcAwvtfMjfu2U=
-----END CERTIFICATE-----
