Certificate:
    Data:
        Version: 3 (0x2)
        Serial Number: 268435672 (0x100000d8)
    Signature Algorithm: sha256WithRSAEncryption
        Issuer: C=DE, ST=Hessen, O=privacyidea, CN=CA001
        Validity
            Not Before: Aug 29 12:35:37 2017 GMT
            Not After : Aug 29 12:35:37 2018 GMT
        Subject: C=DE, ST=Hessen, O=privacyidea, CN=requester.localdomain
        Subject Public Key Info:
            Public Key Algorithm: rsaEncryption
                Public-Key: (2048 bit)
                Modulus:
                    00:cd:be:14:4f:fa:ce:01:3f:42:22:1b:1d:9c:af:
                    dd:92:d2:7f:db:6c:b7:3e:39:43:43:6b:13:03:f1:
                    05:f4:07:74:bc:76:69:28:0b:af:19:8e:d7:fc:e3:
                    cd:c6:58:f2:ca:7f:08:6d:53:fc:07:02:44:24:c6:
                    b4:34:4c:8c:04:fe:33:0e:40:e2:20:ba:02:73:5a:
                    f7:f5:4f:63:6e:cc:c6:b6:df:54:1d:37:39:7d:51:
                    36:26:5f:bd:dc:3f:a8:8b:6b:a2:ae:b6:9d:d6:21:
                    e7:df:41:b8:7a:28:2a:68:48:ca:a8:2d:ed:e1:e9:
                    46:5e:5a:72:6d:b4:84:38:87:91:fd:94:11:0b:28:
                    84:c6:c2:2f:2a:fb:01:f9:36:7a:09:75:d1:33:88:
                    3c:73:41:5b:c8:bf:94:89:70:a1:f0:c0:b9:2e:50:
                    53:1e:b1:17:64:69:f4:2d:81:e0:a9:0d:0e:32:e9:
                    ba:55:8a:85:f1:1b:6f:49:79:b4:7f:88:c3:0d:3e:
                    54:88:9b:3d:1f:38:8c:04:f3:ee:6a:63:2b:f5:c6:
                    db:b4:83:aa:c4:78:41:3a:7d:4b:e1:c8:3e:71:ca:
                    1b:61:59:ea:c6:c4:ca:32:5e:c9:e9:bf:12:29:e6:
                    c6:c3:63:fe:a0:55:da:7a:f1:60:98:4d:26:ed:fa:
                    70:2d
                Exponent: 65537 (0x10001)
        X509v3 extensions:
            X509v3 Key Usage: 
                Digital Signature, Key Encipherment
            X509v3 Basic Constraints: 
                CA:FALSE
            Netscape Cert Type: 
                SSL Server
            Netscape Comment: 
                OpenSSL Generated Server Certificate
            X509v3 Subject Key Identifier: 
                53:3F:ED:5D:09:07:B3:65:7B:AB:45:C9:24:5B:09:77:80:0A:96:ED
            X509v3 Authority Key Identifier: 
                keyid:F4:A7:C0:CC:91:46:AF:64:F3:91:F2:27:F8:C8:B2:6F:8A:87:32:73
                DirName:/C=DE/ST=Hessen/O=privacyidea/CN=CA001
                serial:FB:C8:EB:AC:83:CD:12:07

            X509v3 Extended Key Usage: 
                TLS Web Server Authentication
    Signature Algorithm: sha256WithRSAEncryption
         22:da:23:55:c2:0d:82:78:ed:16:62:ad:30:e3:4c:3f:fd:49:
         96:3e:ee:a1:45:b0:bf:10:2a:c6:5d:1f:5a:d0:01:6d:b5:58:
         ed:6c:14:7f:b2:94:b4:dc:8b:7d:6e:09:1e:9e:e4:0b:78:61:
         a2:d3:8f:0c:3f:7f:97:2a:29:dd:a9:c8:01:ca:49:42:15:4c:
         a5:c5:31:e3:d0:bb:c1:87:a9:e2:1f:22:1e:c8:86:cb:94:a5:
         ce:12:29:db:95:6f:f4:11:a6:b4:7e:26:f2:c1:d2:ad:a0:5d:
         d0:be:01:1f:fa:72:b1:c0:15:21:76:15:69:0c:c8:69:4e:00:
         c3:5e:8c:a3:d8:ca:6a:9a:96:7c:ca:a6:42:ea:13:d8:c4:37:
         7d:da:f4:b0:61:89:63:7c:2a:5e:f4:6e:1c:ab:1a:86:29:54:
         38:79:41:fb:a2:df:32:c6:b9:c2:3d:29:94:13:b8:3f:65:31:
         02:39:27:fe:14:ae:db:4f:07:a9:d5:81:4d:d7:d2:be:d8:fc:
         98:0a:98:52:de:97:ff:10:b0:f5:51:d6:87:1a:77:6a:b5:8f:
         1f:2a:b0:8e:9b:0e:3c:4a:56:1f:ec:c1:6d:2e:b2:d8:6b:e1:
         da:51:ee:a7:32:61:8f:8f:da:69:af:5d:42:ee:f7:3c:6a:2b:
         41:02:1c:04
-----BEGIN CERTIFICATE-----
MIIEJjCCAw6gAwIBAgIEEAAA2DANBgkqhkiG9w0BAQsFADBEMQswCQYDVQQGEwJE
RTEPMA0GA1UECAwGSGVzc2VuMRQwEgYDVQQKDAtwcml2YWN5aWRlYTEOMAwGA1UE
AwwFQ0EwMDEwHhcNMTcwODI5MTIzNTM3WhcNMTgwODI5MTIzNTM3WjBUMQswCQYD
VQQGEwJERTEPMA0GA1UECAwGSGVzc2VuMRQwEgYDVQQKDAtwcml2YWN5aWRlYTEe
MBwGA1UEAwwVcmVxdWVzdGVyLmxvY2FsZG9tYWluMIIBIjANBgkqhkiG9w0BAQEF
AAOCAQ8AMIIBCgKCAQEAzb4UT/rOAT9CIhsdnK/dktJ/22y3PjlDQ2sTA/EF9Ad0
vHZpKAuvGY7X/OPNxljyyn8IbVP8BwJEJMa0NEyMBP4zDkDiILoCc1r39U9jbszG
tt9UHTc5fVE2Jl+93D+oi2uirrad1iHn30G4eigqaEjKqC3t4elGXlpybbSEOIeR
/ZQRCyiExsIvKvsB+TZ6CXXRM4g8c0FbyL+UiXCh8MC5LlBTHrEXZGn0LYHgqQ0O
Mum6VYqF8RtvSXm0f4jDDT5UiJs9HziMBPPuamMr9cbbtIOqxHhBOn1L4cg+ccob
YVnqxsTKMl7J6b8SKebGw2P+oFXaevFgmE0m7fpwLQIDAQABo4IBDjCCAQowCwYD
VR0PBAQDAgWgMAkGA1UdEwQCMAAwEQYJYIZIAYb4QgEBBAQDAgZAMDMGCWCGSAGG
+EIBDQQmFiRPcGVuU1NMIEdlbmVyYXRlZCBTZXJ2ZXIgQ2VydGlmaWNhdGUwHQYD
VR0OBBYEFFM/7V0JB7Nle6tFySRbCXeACpbtMHQGA1UdIwRtMGuAFPSnwMyRRq9k
85HyJ/jIsm+KhzJzoUikRjBEMQswCQYDVQQGEwJERTEPMA0GA1UECAwGSGVzc2Vu
MRQwEgYDVQQKDAtwcml2YWN5aWRlYTEOMAwGA1UEAwwFQ0EwMDGCCQD7yOusg80S
BzATBgNVHSUEDDAKBggrBgEFBQcDATANBgkqhkiG9w0BAQsFAAOCAQEAItojVcIN
gnjtFmKtMONMP/1Jlj7uoUWwvxAqxl0fWtABbbVY7WwUf7KUtNyLfW4JHp7kC3hh
otOPDD9/lyop3anIAcpJQhVMpcUx49C7wYep4h8iHsiGy5SlzhIp25Vv9BGmtH4m
8sHSraBd0L4BH/pyscAVIXYVaQzIaU4Aw16Mo9jKapqWfMqmQuoT2MQ3fdr0sGGJ
Y3wqXvRuHKsahilUOHlB+6LfMsa5wj0plBO4P2UxAjkn/hSu208HqdWBTdfSvtj8
mAqYUt6X/xCw9VHWhxp3arWPHyqwjpsOPEpWH+zBbS6y2Gvh2lHupzJhj4/aaa9d
Qu73PGorQQIcBA==
-----END CERTIFICATE-----
