Certificate:
    Data:
        Version: 3 (0x2)
        Serial Number: 268435666 (0x100000d2)
    Signature Algorithm: sha256WithRSAEncryption
        Issuer: C=DE, ST=Hessen, O=privacyidea, CN=CA001
        Validity
            Not Before: Aug 29 12:04:04 2017 GMT
            Not After : Aug 29 12:04:04 2018 GMT
        Subject: C=DE, ST=Hessen, O=privacyidea, CN=usercert
        Subject Public Key Info:
            Public Key Algorithm: rsaEncryption
                Public-Key: (2048 bit)
                Modulus:
                    00:dc:2f:d1:5f:29:97:d4:7c:c3:53:c8:30:bd:4b:
                    67:70:2c:24:6b:b8:5e:eb:21:7a:48:12:56:7c:81:
                    5c:48:75:b6:68:eb:f6:f2:98:4e:50:51:d1:7f:6c:
                    73:f3:0a:a7:ae:be:48:5e:e5:d6:e1:d9:2a:7c:32:
                    6e:4e:fd:08:f6:5a:54:49:23:73:c3:b9:07:18:d1:
                    ef:b3:ac:f8:8a:dc:94:96:a4:90:3a:8e:74:df:e6:
                    0d:37:1b:bd:5b:b7:25:1a:56:39:da:6f:91:aa:5e:
                    1c:74:f3:f9:7c:14:01:83:12:65:76:c7:bb:fe:36:
                    5b:95:e9:72:65:83:ed:3e:98:30:71:fa:87:dd:a3:
                    36:5a:30:03:2e:26:e0:61:d1:bf:02:3f:b6:06:1f:
                    4a:89:28:1c:5c:a2:ff:4e:be:94:e6:8c:e0:da:82:
                    f1:9d:29:32:48:30:73:b4:04:f6:42:1e:be:f7:e2:
                    32:32:27:3c:9d:89:2f:70:3e:85:9a:6f:5c:c5:09:
                    c0:8c:32:2f:72:22:c9:d2:95:1f:b6:ac:72:60:72:
                    b7:82:4d:6b:ce:5b:e3:00:d0:d2:2f:58:c6:e0:10:
                    e5:51:ca:4d:3b:2e:e6:7e:ab:84:d6:56:f1:93:35:
                    a0:93:64:26:81:75:2f:91:b5:16:06:38:0b:db:cc:
                    2d:07
                Exponent: 65537 (0x10001)
        X509v3 extensions:
            X509v3 Key Usage: 
                Digital Signature, Key Encipherment
            X509v3 Basic Constraints: 
                CA:FALSE
            Netscape Cert Type: 
                SSL Server
            Netscape Comment: 
                OpenSSL Generated Server Certificate
            X509v3 Subject Key Identifier: 
                FC:14:D1:F0:4B:8D:00:90:F2:F5:B8:71:9E:4E:97:C3:92:54:AD:0B
            X509v3 Authority Key Identifier: 
                keyid:F4:A7:C0:CC:91:46:AF:64:F3:91:F2:27:F8:C8:B2:6F:8A:87:32:73
                DirName:/C=DE/ST=Hessen/O=privacyidea/CN=CA001
                serial:FB:C8:EB:AC:83:CD:12:07

            X509v3 Extended Key Usage: 
                TLS Web Server Authentication
    Signature Algorithm: sha256WithRSAEncryption
         34:f4:ec:38:bc:f5:41:1f:4d:0f:97:33:dc:37:c4:2c:78:f8:
         ec:a9:ce:8c:94:ac:ac:97:6e:83:fb:53:b1:cf:73:f3:7b:66:
         1f:49:a3:16:83:b6:e0:1c:91:86:cd:89:3b:f4:e0:aa:17:ba:
         3d:ee:2e:00:42:19:d6:57:9c:68:cd:71:ff:3a:b0:f6:71:92:
         12:3b:6a:92:d1:ff:6f:9c:dd:3b:68:b5:e1:97:9d:ad:fd:ae:
         32:73:15:9f:d9:54:d6:8f:81:94:14:df:51:9e:75:79:2d:a4:
         f6:58:67:73:b7:e9:aa:be:78:54:67:e5:9d:75:9f:8b:76:27:
         a3:ce:98:a5:35:01:cf:35:b7:8f:cd:69:fb:8d:01:e3:c9:41:
         fa:b2:60:db:58:05:1a:e4:35:33:ca:c1:f9:c4:1b:9e:4f:c0:
         ee:dc:0f:ed:e3:e2:f3:97:30:60:c3:0f:74:4f:2d:f0:14:70:
         eb:0a:d8:2a:1f:ed:65:01:32:ed:08:26:65:b1:eb:81:9d:6d:
         e5:0e:e9:33:12:f9:4d:38:14:62:32:90:83:bb:6f:65:4d:74:
         e3:4d:27:5e:07:c4:6b:e9:1f:32:a8:f1:9b:83:fa:93:49:6d:
         79:72:69:16:aa:cb:88:07:5e:c4:0b:46:e6:12:63:75:e7:be:
         44:91:dd:f3
-----BEGIN CERTIFICATE-----
MIIEGTCCAwGgAwIBAgIEEAAA0jANBgkqhkiG9w0BAQsFADBEMQswCQYDVQQGEwJE
RTEPMA0GA1UECAwGSGVzc2VuMRQwEgYDVQQKDAtwcml2YWN5aWRlYTEOMAwGA1UE
AwwFQ0EwMDEwHhcNMTcwODI5MTIwNDA0WhcNMTgwODI5MTIwNDA0WjBHMQswCQYD
VQQGEwJERTEPMA0GA1UECAwGSGVzc2VuMRQwEgYDVQQKDAtwcml2YWN5aWRlYTER
MA8GA1UEAwwIdXNlcmNlcnQwggEiMA0GCSqGSIb3DQEBAQUAA4IBDwAwggEKAoIB
AQDcL9FfKZfUfMNTyDC9S2dwLCRruF7rIXpIElZ8gVxIdbZo6/bymE5QUdF/bHPz
Cqeuvkhe5dbh2Sp8Mm5O/Qj2WlRJI3PDuQcY0e+zrPiK3JSWpJA6jnTf5g03G71b
tyUaVjnab5GqXhx08/l8FAGDEmV2x7v+NluV6XJlg+0+mDBx+ofdozZaMAMuJuBh
0b8CP7YGH0qJKBxcov9OvpTmjODagvGdKTJIMHO0BPZCHr734jIyJzydiS9wPoWa
b1zFCcCMMi9yIsnSlR+2rHJgcreCTWvOW+MA0NIvWMbgEOVRyk07LuZ+q4TWVvGT
NaCTZCaBdS+RtRYGOAvbzC0HAgMBAAGjggEOMIIBCjALBgNVHQ8EBAMCBaAwCQYD
VR0TBAIwADARBglghkgBhvhCAQEEBAMCBkAwMwYJYIZIAYb4QgENBCYWJE9wZW5T
U0wgR2VuZXJhdGVkIFNlcnZlciBDZXJ0aWZpY2F0ZTAdBgNVHQ4EFgQU/BTR8EuN
AJDy9bhxnk6Xw5JUrQswdAYDVR0jBG0wa4AU9KfAzJFGr2TzkfIn+Miyb4qHMnOh
SKRGMEQxCzAJBgNVBAYTAkRFMQ8wDQYDVQQIDAZIZXNzZW4xFDASBgNVBAoMC3By
aXZhY3lpZGVhMQ4wDAYDVQQDDAVDQTAwMYIJAPvI66yDzRIHMBMGA1UdJQQMMAoG
CCsGAQUFBwMBMA0GCSqGSIb3DQEBCwUAA4IBAQA09Ow4vPVBH00PlzPcN8QsePjs
qc6MlKysl26D+1Oxz3Pze2YfSaMWg7bgHJGGzYk79OCqF7o97i4AQhnWV5xozXH/
OrD2cZISO2qS0f9vnN07aLXhl52t/a4ycxWf2VTWj4GUFN9RnnV5LaT2WGdzt+mq
vnhUZ+WddZ+LdiejzpilNQHPNbePzWn7jQHjyUH6smDbWAUa5DUzysH5xBueT8Du
3A/t4+LzlzBgww90Ty3wFHDrCtgqH+1lATLtCCZlseuBnW3lDukzEvlNOBRiMpCD
u29lTXTjTSdeB8Rr6R8yqPGbg/qTSW15cmkWqsuIB17EC0bmEmN1575Ekd3z
-----END CERTIFICATE-----
