Certificate:
    Data:
        Version: 3 (0x2)
        Serial Number: 268435674 (0x100000da)
    Signature Algorithm: sha256WithRSAEncryption
        Issuer: C=DE, ST=Hessen, O=privacyidea, CN=CA001
        Validity
            Not Before: Aug 29 12:37:31 2017 GMT
            Not After : Aug 29 12:37:31 2018 GMT
        Subject: C=DE, ST=Hessen, O=privacyidea, CN=usercert
        Subject Public Key Info:
            Public Key Algorithm: rsaEncryption
                Public-Key: (2048 bit)
                Modulus:
                    00:dc:2f:d1:5f:29:97:d4:7c:c3:53:c8:30:bd:4b:
                    67:70:2c:24:6b:b8:5e:eb:21:7a:48:12:56:7c:81:
                    5c:48:75:b6:68:eb:f6:f2:98:4e:50:51:d1:7f:6c:
                    73:f3:0a:a7:ae:be:48:5e:e5:d6:e1:d9:2a:7c:32:
                    6e:4e:fd:08:f6:5a:54:49:23:73:c3:b9:07:18:d1:
                    ef:b3:ac:f8:8a:dc:94:96:a4:90:3a:8e:74:df:e6:
                    0d:37:1b:bd:5b:b7:25:1a:56:39:da:6f:91:aa:5e:
                    1c:74:f3:f9:7c:14:01:83:12:65:76:c7:bb:fe:36:
                    5b:95:e9:72:65:83:ed:3e:98:30:71:fa:87:dd:a3:
                    36:5a:30:03:2e:26:e0:61:d1:bf:02:3f:b6:06:1f:
                    4a:89:28:1c:5c:a2:ff:4e:be:94:e6:8c:e0:da:82:
                    f1:9d:29:32:48:30:73:b4:04:f6:42:1e:be:f7:e2:
                    32:32:27:3c:9d:89:2f:70:3e:85:9a:6f:5c:c5:09:
                    c0:8c:32:2f:72:22:c9:d2:95:1f:b6:ac:72:60:72:
                    b7:82:4d:6b:ce:5b:e3:00:d0:d2:2f:58:c6:e0:10:
                    e5:51:ca:4d:3b:2e:e6:7e:ab:84:d6:56:f1:93:35:
                    a0:93:64:26:81:75:2f:91:b5:16:06:38:0b:db:cc:
                    2d:07
                Exponent: 65537 (0x10001)
        X509v3 extensions:
            X509v3 Key Usage: 
                Digital Signature, Key Encipherment
            X509v3 Basic Constraints: 
                CA:FALSE
            Netscape Cert Type: 
                SSL Server
            Netscape Comment: 
                OpenSSL Generated Server Certificate
            X509v3 Subject Key Identifier: 
                FC:14:D1:F0:4B:8D:00:90:F2:F5:B8:71:9E:4E:97:C3:92:54:AD:0B
            X509v3 Authority Key Identifier: 
                keyid:F4:A7:C0:CC:91:46:AF:64:F3:91:F2:27:F8:C8:B2:6F:8A:87:32:73
                DirName:/C=DE/ST=Hessen/O=privacyidea/CN=CA001
                serial:FB:C8:EB:AC:83:CD:12:07

            X509v3 Extended Key Usage: 
                TLS Web Server Authentication
    Signature Algorithm: sha256WithRSAEncryption
         be:42:0c:89:4e:70:46:0c:37:ca:3e:ea:1d:b2:90:b2:e7:e8:
         d1:0f:f8:29:8c:b0:19:75:81:18:61:3c:f3:7f:07:cd:f0:c6:
         a5:2b:22:45:bb:b9:ff:87:48:49:c3:a7:79:f0:d6:1e:cf:ba:
         7c:e8:a6:f0:69:02:09:6e:fb:3d:9f:8b:ef:cf:40:54:23:b9:
         43:48:42:f1:24:bc:54:a6:87:86:95:5b:bf:86:9f:2f:d6:7e:
         c5:e6:de:9c:a4:e7:7b:33:48:d8:2d:05:a8:81:ba:d1:25:93:
         f5:ba:1c:13:5a:36:57:f6:01:6b:ca:ab:de:48:ec:67:a6:0f:
         eb:9e:fa:0b:26:35:0f:00:f5:e9:16:3c:5a:19:cb:dc:a4:58:
         79:c2:62:50:e1:62:d1:27:b7:c0:6b:08:f8:50:a5:04:ad:7c:
         37:57:f2:14:b6:a4:33:1c:3b:7c:d8:7c:c2:ce:48:3e:6d:1a:
         43:fc:9a:27:81:fe:da:db:1b:c4:d1:31:99:18:e1:21:ca:26:
         1f:ae:2b:c9:0e:b6:43:46:d4:63:18:86:50:29:94:80:83:73:
         d8:7e:a0:5c:46:c5:7c:b5:57:b4:fb:2d:64:48:fb:64:a7:30:
         81:37:17:1a:90:8b:ed:4c:35:7b:5f:f5:9e:8e:c7:ad:15:d0:
         7b:32:b1:34
-----BEGIN CERTIFICATE-----
MIIEGTCCAwGgAwIBAgIEEAAA2jANBgkqhkiG9w0BAQsFADBEMQswCQYDVQQGEwJE
RTEPMA0GA1UECAwGSGVzc2VuMRQwEgYDVQQKDAtwcml2YWN5aWRlYTEOMAwGA1UE
AwwFQ0EwMDEwHhcNMTcwODI5MTIzNzMxWhcNMTgwODI5MTIzNzMxWjBHMQswCQYD
VQQGEwJERTEPMA0GA1UECAwGSGVzc2VuMRQwEgYDVQQKDAtwcml2YWN5aWRlYTER
MA8GA1UEAwwIdXNlcmNlcnQwggEiMA0GCSqGSIb3DQEBAQUAA4IBDwAwggEKAoIB
AQDcL9FfKZfUfMNTyDC9S2dwLCRruF7rIXpIElZ8gVxIdbZo6/bymE5QUdF/bHPz
Cqeuvkhe5dbh2Sp8Mm5O/Qj2WlRJI3PDuQcY0e+zrPiK3JSWpJA6jnTf5g03G71b
tyUaVjnab5GqXhx08/l8FAGDEmV2x7v+NluV6XJlg+0+mDBx+ofdozZaMAMuJuBh
0b8CP7YGH0qJKBxcov9OvpTmjODagvGdKTJIMHO0BPZCHr734jIyJzydiS9wPoWa
b1zFCcCMMi9yIsnSlR+2rHJgcreCTWvOW+MA0NIvWMbgEOVRyk07LuZ+q4TWVvGT
NaCTZCaBdS+RtRYGOAvbzC0HAgMBAAGjggEOMIIBCjALBgNVHQ8EBAMCBaAwCQYD
VR0TBAIwADARBglghkgBhvhCAQEEBAMCBkAwMwYJYIZIAYb4QgENBCYWJE9wZW5T
U0wgR2VuZXJhdGVkIFNlcnZlciBDZXJ0aWZpY2F0ZTAdBgNVHQ4EFgQU/BTR8EuN
AJDy9bhxnk6Xw5JUrQswdAYDVR0jBG0wa4AU9KfAzJFGr2TzkfIn+Miyb4qHMnOh
SKRGMEQxCzAJBgNVBAYTAkRFMQ8wDQYDVQQIDAZIZXNzZW4xFDASBgNVBAoMC3By
aXZhY3lpZGVhMQ4wDAYDVQQDDAVDQTAwMYIJAPvI66yDzRIHMBMGA1UdJQQMMAoG
CCsGAQUFBwMBMA0GCSqGSIb3DQEBCwUAA4IBAQC+QgyJTnBGDDfKPuodspCy5+jR
D/gpjLAZdYEYYTzzfwfN8MalKyJFu7n/h0hJw6d58NYez7p86KbwaQIJbvs9n4vv
z0BUI7lDSELxJLxUpoeGlVu/hp8v1n7F5t6cpOd7M0jYLQWogbrRJZP1uhwTWjZX
9gFryqveSOxnpg/rnvoLJjUPAPXpFjxaGcvcpFh5wmJQ4WLRJ7fAawj4UKUErXw3
V/IUtqQzHDt82HzCzkg+bRpD/Jongf7a2xvE0TGZGOEhyiYfrivJDrZDRtRjGIZQ
KZSAg3PYfqBcRsV8tVe0+y1kSPtkpzCBNxcakIvtTDV7X/WejsetFdB7MrE0
-----END CERTIFICATE-----
