Certificate:
    Data:
        Version: 3 (0x2)
        Serial Number: 268435676 (0x100000dc)
    Signature Algorithm: sha256WithRSAEncryption
        Issuer: C=DE, ST=Hessen, O=privacyidea, CN=CA001
        Validity
            Not Before: Aug 29 12:37:31 2017 GMT
            Not After : Sep 18 12:37:31 2019 GMT
        Subject: CN=Steve Test/emailAddress=steve@openssl.org
        Subject Public Key Info:
            Public Key Algorithm: rsaEncryption
                Public-Key: (2048 bit)
                Modulus:
                    00:d2:81:89:20:51:48:0f:73:f4:11:32:24:d5:1f:
                    1c:fd:5c:f5:b6:e6:c5:f0:52:81:dc:d2:af:66:4a:
                    7c:93:31:61:5c:af:d1:6d:06:70:03:60:7c:72:0c:
                    88:dd:49:cd:9e:02:6c:d2:5a:d7:53:0f:f3:da:be:
                    69:64:b5:0f:0c:00:e3:b3:50:47:a3:b3:9b:ba:13:
                    50:d6:58:5a:4b:ab:39:e0:11:ca:0a:27:67:03:78:
                    22:66:6d:92:1e:1b:5c:49:ae:e6:6b:d1:8e:3b:9d:
                    06:d3:c6:ac:4d:53:43:10:ab:e8:96:c1:87:82:97:
                    99:8f:20:d3:99:12:37:31:84:e1:8a:ff:29:03:5f:
                    22:90:3e:7f:9b:e0:20:c1:ad:dc:ae:4c:39:1a:31:
                    96:17:02:8c:b2:d9:b4:0d:20:12:9b:7d:86:54:fd:
                    33:fd:c1:2a:62:46:f8:60:96:cf:6e:01:6f:22:df:
                    13:47:e7:97:ec:05:72:23:a3:62:f8:fa:ef:ac:9c:
                    72:f0:37:cb:2f:37:cf:90:a8:27:51:86:c6:d7:78:
                    08:8f:7e:25:a2:15:70:a2:fb:1c:b6:15:5e:a0:97:
                    8b:81:4c:09:28:8a:27:3b:94:bc:71:db:5b:71:37:
                    9a:2b:16:e0:6f:b5:c9:f5:4b:4f:20:ba:65:cf:af:
                    ad:ad
                Exponent: 65537 (0x10001)
        X509v3 extensions:
            X509v3 Key Usage: 
                Digital Signature, Key Encipherment
            X509v3 Basic Constraints: 
                CA:FALSE
            Netscape Cert Type: 
                SSL Server
            Netscape Comment: 
                OpenSSL Generated Server Certificate
            X509v3 Subject Key Identifier: 
                E5:25:6D:3E:AF:0D:DD:3F:4C:F2:45:19:39:D5:14:DB:7E:9C:C0:AD
            X509v3 Authority Key Identifier: 
                keyid:F4:A7:C0:CC:91:46:AF:64:F3:91:F2:27:F8:C8:B2:6F:8A:87:32:73
                DirName:/C=DE/ST=Hessen/O=privacyidea/CN=CA001
                serial:FB:C8:EB:AC:83:CD:12:07

            X509v3 Extended Key Usage: 
                TLS Web Server Authentication
    Signature Algorithm: sha256WithRSAEncryption
         b4:87:c4:28:0e:d9:31:2b:42:57:cc:0b:4e:a0:b5:58:ec:dd:
         ac:a9:5b:91:f0:b2:8f:5b:ce:65:54:0a:f2:db:dd:b8:95:2a:
         2c:e9:2b:d5:11:86:8f:0d:77:5f:18:2f:65:b1:72:2d:17:24:
         ec:30:07:30:bd:41:d4:b2:ed:f7:2d:ca:70:66:ad:02:d8:02:
         5a:89:40:ca:b9:11:3e:91:07:6c:15:00:82:5b:33:85:08:76:
         82:30:83:bf:44:95:e6:89:88:63:cc:89:2c:b5:06:3c:4a:05:
         bc:95:6a:b1:dc:65:e4:5a:fd:e1:d8:b8:79:82:09:bd:28:1f:
         9d:10:9c:81:54:61:8f:5f:47:a8:58:05:0c:fd:14:da:98:f9:
         6e:26:4b:55:e0:24:10:f5:63:0e:72:3f:1d:87:3f:41:e9:55:
         40:fe:b6:58:a7:d9:80:93:34:c2:54:2d:d9:35:75:e6:1d:3f:
         cc:0e:da:04:ca:73:5d:4f:fc:23:8a:9c:95:ec:dc:ec:b1:50:
         12:4d:a5:c2:60:ea:26:89:2d:ca:57:fe:12:5a:fe:9e:88:36:
         04:9d:66:05:22:5a:47:5c:6a:9f:93:17:0b:66:12:26:99:ea:
         96:6f:d0:f9:b9:00:d4:8e:c1:97:dd:09:f6:9c:d0:3c:99:95:
         4a:c4:70:f7
-----BEGIN CERTIFICATE-----
MIIECTCCAvGgAwIBAgIEEAAA3DANBgkqhkiG9w0BAQsFADBEMQswCQYDVQQGEwJE
RTEPMA0GA1UECAwGSGVzc2VuMRQwEgYDVQQKDAtwcml2YWN5aWRlYTEOMAwGA1UE
AwwFQ0EwMDEwHhcNMTcwODI5MTIzNzMxWhcNMTkwOTE4MTIzNzMxWjA3MRMwEQYD
VQQDDApTdGV2ZSBUZXN0MSAwHgYJKoZIhvcNAQkBFhFzdGV2ZUBvcGVuc3NsLm9y
ZzCCASIwDQYJKoZIhvcNAQEBBQADggEPADCCAQoCggEBANKBiSBRSA9z9BEyJNUf
HP1c9bbmxfBSgdzSr2ZKfJMxYVyv0W0GcANgfHIMiN1JzZ4CbNJa11MP89q+aWS1
DwwA47NQR6Ozm7oTUNZYWkurOeARygonZwN4ImZtkh4bXEmu5mvRjjudBtPGrE1T
QxCr6JbBh4KXmY8g05kSNzGE4Yr/KQNfIpA+f5vgIMGt3K5MORoxlhcCjLLZtA0g
Ept9hlT9M/3BKmJG+GCWz24BbyLfE0fnl+wFciOjYvj676yccvA3yy83z5CoJ1GG
xtd4CI9+JaIVcKL7HLYVXqCXi4FMCSiKJzuUvHHbW3E3misW4G+1yfVLTyC6Zc+v
ra0CAwEAAaOCAQ4wggEKMAsGA1UdDwQEAwIFoDAJBgNVHRMEAjAAMBEGCWCGSAGG
+EIBAQQEAwIGQDAzBglghkgBhvhCAQ0EJhYkT3BlblNTTCBHZW5lcmF0ZWQgU2Vy
dmVyIENlcnRpZmljYXRlMB0GA1UdDgQWBBTlJW0+rw3dP0zyRRk51RTbfpzArTB0
BgNVHSMEbTBrgBT0p8DMkUavZPOR8if4yLJviocyc6FIpEYwRDELMAkGA1UEBhMC
REUxDzANBgNVBAgMBkhlc3NlbjEUMBIGA1UECgwLcHJpdmFjeWlkZWExDjAMBgNV
BAMMBUNBMDAxggkA+8jrrIPNEgcwEwYDVR0lBAwwCgYIKwYBBQUHAwEwDQYJKoZI
hvcNAQELBQADggEBALSHxCgO2TErQlfMC06gtVjs3aypW5Hwso9bzmVUCvLb3biV
KizpK9URho8Nd18YL2Wxci0XJOwwBzC9QdSy7fctynBmrQLYAlqJQMq5ET6RB2wV
AIJbM4UIdoIwg79EleaJiGPMiSy1BjxKBbyVarHcZeRa/eHYuHmCCb0oH50QnIFU
YY9fR6hYBQz9FNqY+W4mS1XgJBD1Yw5yPx2HP0HpVUD+tlin2YCTNMJULdk1deYd
P8wO2gTKc11P/COKnJXs3OyxUBJNpcJg6iaJLcpX/hJa/p6INgSdZgUiWkdcap+T
FwtmEiaZ6pZv0Pm5ANSOwZfdCfac0DyZlUrEcPc=
-----END CERTIFICATE-----
