Certificate:
    Data:
        Version: 3 (0x2)
        Serial Number: 268435675 (0x100000db)
    Signature Algorithm: sha256WithRSAEncryption
        Issuer: C=DE, ST=Hessen, O=privacyidea, CN=CA001
        Validity
            Not Before: Aug 29 12:37:31 2017 GMT
            Not After : Aug 29 12:37:31 2018 GMT
        Subject: CN=Steve Test/emailAddress=steve@openssl.org
        Subject Public Key Info:
            Public Key Algorithm: rsaEncryption
                Public-Key: (2048 bit)
                Modulus:
                    00:d2:81:89:20:51:48:0f:73:f4:11:32:24:d5:1f:
                    1c:fd:5c:f5:b6:e6:c5:f0:52:81:dc:d2:af:66:4a:
                    7c:93:31:61:5c:af:d1:6d:06:70:03:60:7c:72:0c:
                    88:dd:49:cd:9e:02:6c:d2:5a:d7:53:0f:f3:da:be:
                    69:64:b5:0f:0c:00:e3:b3:50:47:a3:b3:9b:ba:13:
                    50:d6:58:5a:4b:ab:39:e0:11:ca:0a:27:67:03:78:
                    22:66:6d:92:1e:1b:5c:49:ae:e6:6b:d1:8e:3b:9d:
                    06:d3:c6:ac:4d:53:43:10:ab:e8:96:c1:87:82:97:
                    99:8f:20:d3:99:12:37:31:84:e1:8a:ff:29:03:5f:
                    22:90:3e:7f:9b:e0:20:c1:ad:dc:ae:4c:39:1a:31:
                    96:17:02:8c:b2:d9:b4:0d:20:12:9b:7d:86:54:fd:
                    33:fd:c1:2a:62:46:f8:60:96:cf:6e:01:6f:22:df:
                    13:47:e7:97:ec:05:72:23:a3:62:f8:fa:ef:ac:9c:
                    72:f0:37:cb:2f:37:cf:90:a8:27:51:86:c6:d7:78:
                    08:8f:7e:25:a2:15:70:a2:fb:1c:b6:15:5e:a0:97:
                    8b:81:4c:09:28:8a:27:3b:94:bc:71:db:5b:71:37:
                    9a:2b:16:e0:6f:b5:c9:f5:4b:4f:20:ba:65:cf:af:
                    ad:ad
                Exponent: 65537 (0x10001)
        X509v3 extensions:
            X509v3 Key Usage: 
                Digital Signature, Key Encipherment
            X509v3 Basic Constraints: 
                CA:FALSE
            Netscape Cert Type: 
                SSL Server
            Netscape Comment: 
                OpenSSL Generated Server Certificate
            X509v3 Subject Key Identifier: 
                E5:25:6D:3E:AF:0D:DD:3F:4C:F2:45:19:39:D5:14:DB:7E:9C:C0:AD
            X509v3 Authority Key Identifier: 
                keyid:F4:A7:C0:CC:91:46:AF:64:F3:91:F2:27:F8:C8:B2:6F:8A:87:32:73
                DirName:/C=DE/ST=Hessen/O=privacyidea/CN=CA001
                serial:FB:C8:EB:AC:83:CD:12:07

            X509v3 Extended Key Usage: 
                TLS Web Server Authentication
    Signature Algorithm: sha256WithRSAEncryption
         21:37:6c:d3:28:2d:eb:ab:66:bd:d8:c4:b8:6e:80:69:76:49:
         b6:4b:b5:fe:72:80:65:78:e8:96:83:8c:98:a8:38:80:0c:2c:
         8c:18:49:89:96:02:0b:e4:c2:9f:4e:0a:1a:7a:dd:9b:f8:d5:
         ea:1e:27:79:45:3d:c3:ad:c0:71:7a:ff:1f:ca:56:0b:7c:bb:
         6c:ff:e0:65:cb:ee:e5:27:65:6a:ca:e9:31:05:d4:0a:bc:c6:
         a1:ba:72:73:14:cf:27:62:2e:2a:22:f2:2a:b6:3e:77:4a:9b:
         69:77:c8:d6:53:a8:d4:37:e4:90:dd:b9:46:53:ce:9e:61:cf:
         60:0b:c1:d0:b3:ad:24:a2:8a:c7:26:8e:73:95:0a:03:4c:c7:
         56:30:26:e1:e9:82:fc:94:01:a1:db:c8:f4:13:fc:9c:22:66:
         03:f7:d9:81:a5:f4:2b:09:82:84:56:89:0a:ff:73:6c:31:f2:
         e6:ef:d1:51:00:31:77:01:18:2c:91:e2:95:7d:9c:50:e7:3c:
         8d:23:08:17:98:fd:88:d7:b3:6b:27:d2:e7:3f:8a:c1:ee:b4:
         b9:ba:db:f6:25:39:ee:1f:73:62:4f:c9:11:00:7b:3a:b9:52:
         1c:7f:5e:c9:d2:cf:20:9d:db:1a:1b:ef:61:54:27:ec:e5:f8:
         dc:7e:cc:d2
-----BEGIN CERTIFICATE-----
MIIECTCCAvGgAwIBAgIEEAAA2zANBgkqhkiG9w0BAQsFADBEMQswCQYDVQQGEwJE
RTEPMA0GA1UECAwGSGVzc2VuMRQwEgYDVQQKDAtwcml2YWN5aWRlYTEOMAwGA1UE
AwwFQ0EwMDEwHhcNMTcwODI5MTIzNzMxWhcNMTgwODI5MTIzNzMxWjA3MRMwEQYD
VQQDDApTdGV2ZSBUZXN0MSAwHgYJKoZIhvcNAQkBFhFzdGV2ZUBvcGVuc3NsLm9y
ZzCCASIwDQYJKoZIhvcNAQEBBQADggEPADCCAQoCggEBANKBiSBRSA9z9BEyJNUf
HP1c9bbmxfBSgdzSr2ZKfJMxYVyv0W0GcANgfHIMiN1JzZ4CbNJa11MP89q+aWS1
DwwA47NQR6Ozm7oTUNZYWkurOeARygonZwN4ImZtkh4bXEmu5mvRjjudBtPGrE1T
QxCr6JbBh4KXmY8g05kSNzGE4Yr/KQNfIpA+f5vgIMGt3K5MORoxlhcCjLLZtA0g
Ept9hlT9M/3BKmJG+GCWz24BbyLfE0fnl+wFciOjYvj676yccvA3yy83z5CoJ1GG
xtd4CI9+JaIVcKL7HLYVXqCXi4FMCSiKJzuUvHHbW3E3misW4G+1yfVLTyC6Zc+v
ra0CAwEAAaOCAQ4wggEKMAsGA1UdDwQEAwIFoDAJBgNVHRMEAjAAMBEGCWCGSAGG
+EIBAQQEAwIGQDAzBglghkgBhvhCAQ0EJhYkT3BlblNTTCBHZW5lcmF0ZWQgU2Vy
dmVyIENlcnRpZmljYXRlMB0GA1UdDgQWBBTlJW0+rw3dP0zyRRk51RTbfpzArTB0
BgNVHSMEbTBrgBT0p8DMkUavZPOR8if4yLJviocyc6FIpEYwRDELMAkGA1UEBhMC
REUxDzANBgNVBAgMBkhlc3NlbjEUMBIGA1UECgwLcHJpdmFjeWlkZWExDjAMBgNV
BAMMBUNBMDAxggkA+8jrrIPNEgcwEwYDVR0lBAwwCgYIKwYBBQUHAwEwDQYJKoZI
hvcNAQELBQADggEBACE3bNMoLeurZr3YxLhugGl2SbZLtf5ygGV46JaDjJioOIAM
LIwYSYmWAgvkwp9OChp63Zv41eoeJ3lFPcOtwHF6/x/KVgt8u2z/4GXL7uUnZWrK
6TEF1Aq8xqG6cnMUzydiLioi8iq2PndKm2l3yNZTqNQ35JDduUZTzp5hz2ALwdCz
rSSiiscmjnOVCgNMx1YwJuHpgvyUAaHbyPQT/JwiZgP32YGl9CsJgoRWiQr/c2wx
8ubv0VEAMXcBGCyR4pV9nFDnPI0jCBeY/YjXs2sn0uc/isHutLm62/YlOe4fc2JP
yREAezq5Uhx/XsnSzyCd2xob72FUJ+zl+Nx+zNI=
-----END CERTIFICATE-----
