Certificate:
    Data:
        Version: 3 (0x2)
        Serial Number: 268435665 (0x100000d1)
    Signature Algorithm: sha256WithRSAEncryption
        Issuer: C=DE, ST=Hessen, O=privacyidea, CN=CA001
        Validity
            Not Before: Aug 29 12:04:04 2017 GMT
            Not After : Aug 29 12:04:04 2018 GMT
        Subject: C=DE, ST=Hessen, O=privacyidea, CN=requester.localdomain
        Subject Public Key Info:
            Public Key Algorithm: rsaEncryption
                Public-Key: (2048 bit)
                Modulus:
                    00:cd:be:14:4f:fa:ce:01:3f:42:22:1b:1d:9c:af:
                    dd:92:d2:7f:db:6c:b7:3e:39:43:43:6b:13:03:f1:
                    05:f4:07:74:bc:76:69:28:0b:af:19:8e:d7:fc:e3:
                    cd:c6:58:f2:ca:7f:08:6d:53:fc:07:02:44:24:c6:
                    b4:34:4c:8c:04:fe:33:0e:40:e2:20:ba:02:73:5a:
                    f7:f5:4f:63:6e:cc:c6:b6:df:54:1d:37:39:7d:51:
                    36:26:5f:bd:dc:3f:a8:8b:6b:a2:ae:b6:9d:d6:21:
                    e7:df:41:b8:7a:28:2a:68:48:ca:a8:2d:ed:e1:e9:
                    46:5e:5a:72:6d:b4:84:38:87:91:fd:94:11:0b:28:
                    84:c6:c2:2f:2a:fb:01:f9:36:7a:09:75:d1:33:88:
                    3c:73:41:5b:c8:bf:94:89:70:a1:f0:c0:b9:2e:50:
                    53:1e:b1:17:64:69:f4:2d:81:e0:a9:0d:0e:32:e9:
                    ba:55:8a:85:f1:1b:6f:49:79:b4:7f:88:c3:0d:3e:
                    54:88:9b:3d:1f:38:8c:04:f3:ee:6a:63:2b:f5:c6:
                    db:b4:83:aa:c4:78:41:3a:7d:4b:e1:c8:3e:71:ca:
                    1b:61:59:ea:c6:c4:ca:32:5e:c9:e9:bf:12:29:e6:
                    c6:c3:63:fe:a0:55:da:7a:f1:60:98:4d:26:ed:fa:
                    70:2d
                Exponent: 65537 (0x10001)
        X509v3 extensions:
            X509v3 Key Usage: 
                Digital Signature, Key Encipherment
            X509v3 Basic Constraints: 
                CA:FALSE
            Netscape Cert Type: 
                SSL Server
            Netscape Comment: 
                OpenSSL Generated Server Certificate
            X509v3 Subject Key Identifier: 
                53:3F:ED:5D:09:07:B3:65:7B:AB:45:C9:24:5B:09:77:80:0A:96:ED
            X509v3 Authority Key Identifier: 
                keyid:F4:A7:C0:CC:91:46:AF:64:F3:91:F2:27:F8:C8:B2:6F:8A:87:32:73
                DirName:/C=DE/ST=Hessen/O=privacyidea/CN=CA001
                serial:FB:C8:EB:AC:83:CD:12:07

            X509v3 Extended Key Usage: 
                TLS Web Server Authentication
    Signature Algorithm: sha256WithRSAEncryption
         b6:19:a1:9b:d0:c6:aa:6a:74:79:cc:04:06:b3:ea:7f:55:77:
         14:0b:13:3b:39:f0:88:81:32:2b:96:80:52:e9:68:78:41:fa:
         7b:57:bb:5e:4f:b1:f9:2e:2a:bf:ec:88:a0:c7:47:f0:14:88:
         4c:02:4b:e9:a7:6f:1d:01:3b:12:c9:49:84:42:3a:8b:d0:91:
         5c:e6:67:de:13:78:a1:04:ea:4e:35:94:c0:93:8c:7a:37:15:
         cb:97:05:80:54:19:dd:04:78:c7:20:b9:42:3d:21:ad:11:c3:
         77:82:b7:66:4e:74:12:27:3a:b8:e9:ce:42:4e:6f:bd:a8:f0:
         1f:26:87:2d:4d:0b:ad:2c:1d:30:95:d9:b3:4b:ad:1a:fb:a5:
         88:ea:5d:27:b4:5e:41:b3:30:4b:f2:9e:38:6f:ff:dc:9a:fe:
         4c:f7:d7:0e:f5:d0:53:2a:76:17:5c:9c:b1:a1:60:e5:69:00:
         9a:63:3d:32:c7:89:e0:2a:b3:aa:ab:7e:bc:a6:7f:c7:5f:dc:
         7f:1f:ba:4a:f6:83:97:40:af:c5:11:77:db:3d:73:55:0d:09:
         91:eb:90:ca:64:13:37:eb:35:28:02:66:83:a0:ec:9c:09:a8:
         4d:ee:20:f2:ed:f9:76:99:f6:19:b8:17:19:8d:45:33:2e:84:
         df:03:ef:21
-----BEGIN CERTIFICATE-----
MIIEJjCCAw6gAwIBAgIEEAAA0TANBgkqhkiG9w0BAQsFADBEMQswCQYDVQQGEwJE
RTEPMA0GA1UECAwGSGVzc2VuMRQwEgYDVQQKDAtwcml2YWN5aWRlYTEOMAwGA1UE
AwwFQ0EwMDEwHhcNMTcwODI5MTIwNDA0WhcNMTgwODI5MTIwNDA0WjBUMQswCQYD
VQQGEwJERTEPMA0GA1UECAwGSGVzc2VuMRQwEgYDVQQKDAtwcml2YWN5aWRlYTEe
MBwGA1UEAwwVcmVxdWVzdGVyLmxvY2FsZG9tYWluMIIBIjANBgkqhkiG9w0BAQEF
AAOCAQ8AMIIBCgKCAQEAzb4UT/rOAT9CIhsdnK/dktJ/22y3PjlDQ2sTA/EF9Ad0
vHZpKAuvGY7X/OPNxljyyn8IbVP8BwJEJMa0NEyMBP4zDkDiILoCc1r39U9jbszG
tt9UHTc5fVE2Jl+93D+oi2uirrad1iHn30G4eigqaEjKqC3t4elGXlpybbSEOIeR
/ZQRCyiExsIvKvsB+TZ6CXXRM4g8c0FbyL+UiXCh8MC5LlBTHrEXZGn0LYHgqQ0O
Mum6VYqF8RtvSXm0f4jDDT5UiJs9HziMBPPuamMr9cbbtIOqxHhBOn1L4cg+ccob
YVnqxsTKMl7J6b8SKebGw2P+oFXaevFgmE0m7fpwLQIDAQABo4IBDjCCAQowCwYD
VR0PBAQDAgWgMAkGA1UdEwQCMAAwEQYJYIZIAYb4QgEBBAQDAgZAMDMGCWCGSAGG
+EIBDQQmFiRPcGVuU1NMIEdlbmVyYXRlZCBTZXJ2ZXIgQ2VydGlmaWNhdGUwHQYD
VR0OBBYEFFM/7V0JB7Nle6tFySRbCXeACpbtMHQGA1UdIwRtMGuAFPSnwMyRRq9k
85HyJ/jIsm+KhzJzoUikRjBEMQswCQYDVQQGEwJERTEPMA0GA1UECAwGSGVzc2Vu
MRQwEgYDVQQKDAtwcml2YWN5aWRlYTEOMAwGA1UEAwwFQ0EwMDGCCQD7yOusg80S
BzATBgNVHSUEDDAKBggrBgEFBQcDATANBgkqhkiG9w0BAQsFAAOCAQEAthmhm9DG
qmp0ecwEBrPqf1V3FAsTOznwiIEyK5aAUuloeEH6e1e7Xk+x+S4qv+yIoMdH8BSI
TAJL6advHQE7EslJhEI6i9CRXOZn3hN4oQTqTjWUwJOMejcVy5cFgFQZ3QR4xyC5
Qj0hrRHDd4K3Zk50Eic6uOnOQk5vvajwHyaHLU0LrSwdMJXZs0utGvuliOpdJ7Re
QbMwS/KeOG//3Jr+TPfXDvXQUyp2F1ycsaFg5WkAmmM9MseJ4Cqzqqt+vKZ/x1/c
fx+6SvaDl0CvxRF32z1zVQ0JkeuQymQTN+s1KAJmg6DsnAmoTe4g8u35dpn2GbgX
GY1FMy6E3wPvIQ==
-----END CERTIFICATE-----
