Certificate:
    Data:
        Version: 3 (0x2)
        Serial Number: 268435688 (0x100000e8)
    Signature Algorithm: sha256WithRSAEncryption
        Issuer: C=DE, ST=Hessen, O=privacyidea, CN=CA001
        Validity
            Not Before: Apr 27 15:26:25 2017 GMT
            Not After : Apr 27 15:26:25 2018 GMT
        Subject: CN=selfservice,CN=user,O=realm1/emailAddress=meine
        Subject Public Key Info:
            Public Key Algorithm: rsaEncryption
                Public-Key: (2048 bit)
                Modulus:
                    00:cf:3c:d4:33:0e:12:c4:e6:da:cd:b6:56:a1:1c:
                    26:bb:26:1c:8a:4a:73:a8:58:8a:b6:1e:b3:8b:99:
                    d2:1d:07:c2:92:89:79:c0:69:d8:c8:df:28:61:98:
                    1e:b3:fe:ae:2b:bd:78:a9:f7:6e:47:dc:a3:a0:16:
                    8c:85:02:c1:4e:92:fd:72:6e:f0:c8:03:29:9b:b8:
                    00:6e:c0:83:95:c8:34:20:36:9c:b3:e5:e4:e6:76:
                    73:a3:1a:ad:40:96:e0:53:54:00:ec:76:79:9a:c6:
                    0d:7e:b6:bd:29:ec:83:f3:cb:89:a4:cb:6c:00:ba:
                    0c:c5:78:0f:ff:69:b8:94:f4:04:70:43:3f:d8:9e:
                    d7:a7:fb:5d:ce:75:8e:da:e7:c4:07:b1:9d:de:6f:
                    88:4b:b6:4d:9a:cf:f9:bc:fa:9f:cd:32:6d:f6:3a:
                    0b:0d:23:42:78:ec:97:42:bf:0e:4d:60:56:e1:d3:
                    02:f2:19:cb:84:57:90:e5:70:a1:a2:83:35:86:e2:
                    da:86:9f:f9:8a:c4:79:b3:52:28:da:cb:bb:34:ca:
                    d3:da:91:4a:cf:8d:76:a2:b2:6b:9b:f9:96:fd:09:
                    2a:da:11:23:4d:f0:cb:d6:b2:b1:0e:12:6c:9a:19:
                    65:98:87:ca:e4:ee:24:ce:44:ac:90:8f:9d:1b:c5:
                    2a:9d
                Exponent: 65537 (0x10001)
        X509v3 extensions:
            X509v3 Key Usage: 
                Digital Signature, Key Encipherment
            X509v3 Basic Constraints: 
                CA:FALSE
            Netscape Cert Type: 
                SSL Server
            Netscape Comment: 
                OpenSSL Generated Server Certificate
            X509v3 Subject Key Identifier: 
                4D:07:90:AD:FF:1D:0D:E7:1A:DD:D6:2E:FA:BA:34:CB:AA:1F:24:C6
            X509v3 Authority Key Identifier: 
                keyid:F4:A7:C0:CC:91:46:AF:64:F3:91:F2:27:F8:C8:B2:6F:8A:87:32:73
                DirName:/C=DE/ST=Hessen/O=privacyidea/CN=CA001
                serial:FB:C8:EB:AC:83:CD:12:07

            X509v3 Extended Key Usage: 
                TLS Web Server Authentication
    Signature Algorithm: sha256WithRSAEncryption
         76:00:25:2a:ac:29:58:1e:50:73:91:d7:30:50:ff:ff:05:64:
         e2:b3:45:73:31:7f:51:26:ec:4a:c2:26:3b:56:49:fc:e6:2c:
         9f:f2:f8:79:12:cf:44:fa:82:54:90:54:9d:34:a2:ab:09:ef:
         eb:56:39:18:e6:c7:b7:f0:0d:76:53:c5:d0:10:89:eb:cf:49:
         47:e8:a4:ff:12:a2:82:5c:22:be:6a:9d:89:94:fd:bb:1f:4f:
         30:91:16:33:a4:15:0f:df:4d:30:c0:1f:06:fe:a6:70:94:92:
         f9:19:f3:3d:7d:e4:88:5f:26:02:17:58:96:78:ca:2f:32:15:
         5f:42:f0:e0:60:61:43:01:94:7a:fb:1c:22:a6:50:86:c6:5c:
         b9:b7:c1:e4:04:94:95:74:f0:21:ae:34:3c:24:11:22:b1:6d:
         0d:85:7a:bb:a1:b7:fe:a5:6d:97:4a:8b:62:cf:cd:c7:70:2a:
         e0:19:5b:dc:50:0c:11:24:10:2f:a3:68:7b:ea:80:7f:bd:b6:
         5f:f7:19:6b:b3:99:ad:64:40:ed:47:9b:10:5b:8b:e4:e8:90:
         c5:8d:fa:47:c2:ed:a2:fb:58:23:b9:2d:3a:cf:93:d9:d3:fc:
         ad:37:27:25:14:6f:97:bd:b1:12:1c:95:f6:a4:e5:6d:dc:db:
         89:f0:62:80
-----BEGIN CERTIFICATE-----
MIIEDzCCAvegAwIBAgIEEAAA6DANBgkqhkiG9w0BAQsFADBEMQswCQYDVQQGEwJE
RTEPMA0GA1UECAwGSGVzc2VuMRQwEgYDVQQKDAtwcml2YWN5aWRlYTEOMAwGA1UE
AwwFQ0EwMDEwHhcNMTcwNDI3MTUyNjI1WhcNMTgwNDI3MTUyNjI1WjA9MSUwIwYD
VQQDDBxzZWxmc2VydmljZSxDTj11c2VyLE89cmVhbG0xMRQwEgYJKoZIhvcNAQkB
FgVtZWluZTCCASIwDQYJKoZIhvcNAQEBBQADggEPADCCAQoCggEBAM881DMOEsTm
2s22VqEcJrsmHIpKc6hYirYes4uZ0h0HwpKJecBp2MjfKGGYHrP+riu9eKn3bkfc
o6AWjIUCwU6S/XJu8MgDKZu4AG7Ag5XINCA2nLPl5OZ2c6MarUCW4FNUAOx2eZrG
DX62vSnsg/PLiaTLbAC6DMV4D/9puJT0BHBDP9ie16f7Xc51jtrnxAexnd5viEu2
TZrP+bz6n80ybfY6Cw0jQnjsl0K/Dk1gVuHTAvIZy4RXkOVwoaKDNYbi2oaf+YrE
ebNSKNrLuzTK09qRSs+NdqKya5v5lv0JKtoRI03wy9aysQ4SbJoZZZiHyuTuJM5E
rJCPnRvFKp0CAwEAAaOCAQ4wggEKMAsGA1UdDwQEAwIFoDAJBgNVHRMEAjAAMBEG
CWCGSAGG+EIBAQQEAwIGQDAzBglghkgBhvhCAQ0EJhYkT3BlblNTTCBHZW5lcmF0
ZWQgU2VydmVyIENlcnRpZmljYXRlMB0GA1UdDgQWBBRNB5Ct/x0N5xrd1i76ujTL
qh8kxjB0BgNVHSMEbTBrgBT0p8DMkUavZPOR8if4yLJviocyc6FIpEYwRDELMAkG
A1UEBhMCREUxDzANBgNVBAgMBkhlc3NlbjEUMBIGA1UECgwLcHJpdmFjeWlkZWEx
DjAMBgNVBAMMBUNBMDAxggkA+8jrrIPNEgcwEwYDVR0lBAwwCgYIKwYBBQUHAwEw
DQYJKoZIhvcNAQELBQADggEBAHYAJSqsKVgeUHOR1zBQ//8FZOKzRXMxf1Em7ErC
JjtWSfzmLJ/y+HkSz0T6glSQVJ00oqsJ7+tWORjmx7fwDXZTxdAQievPSUfopP8S
ooJcIr5qnYmU/bsfTzCRFjOkFQ/fTTDAHwb+pnCUkvkZ8z195IhfJgIXWJZ4yi8y
FV9C8OBgYUMBlHr7HCKmUIbGXLm3weQElJV08CGuNDwkESKxbQ2Feruht/6lbZdK
i2LPzcdwKuAZW9xQDBEkEC+jaHvqgH+9tl/3GWuzma1kQO1HmxBbi+TokMWN+kfC
7aL7WCO5LTrPk9nT/K03JyUUb5e9sRIclfak5W3c24nwYoA=
-----END CERTIFICATE-----
