Certificate:
    Data:
        Version: 3 (0x2)
        Serial Number: 268435669 (0x100000d5)
    Signature Algorithm: sha256WithRSAEncryption
        Issuer: C=DE, ST=Hessen, O=privacyidea, CN=CA001
        Validity
            Not Before: Aug 29 12:08:06 2017 GMT
            Not After : Aug 29 12:08:06 2018 GMT
        Subject: C=DE, ST=Hessen, O=privacyidea, CN=requester.localdomain
        Subject Public Key Info:
            Public Key Algorithm: rsaEncryption
                Public-Key: (2048 bit)
                Modulus:
                    00:cd:be:14:4f:fa:ce:01:3f:42:22:1b:1d:9c:af:
                    dd:92:d2:7f:db:6c:b7:3e:39:43:43:6b:13:03:f1:
                    05:f4:07:74:bc:76:69:28:0b:af:19:8e:d7:fc:e3:
                    cd:c6:58:f2:ca:7f:08:6d:53:fc:07:02:44:24:c6:
                    b4:34:4c:8c:04:fe:33:0e:40:e2:20:ba:02:73:5a:
                    f7:f5:4f:63:6e:cc:c6:b6:df:54:1d:37:39:7d:51:
                    36:26:5f:bd:dc:3f:a8:8b:6b:a2:ae:b6:9d:d6:21:
                    e7:df:41:b8:7a:28:2a:68:48:ca:a8:2d:ed:e1:e9:
                    46:5e:5a:72:6d:b4:84:38:87:91:fd:94:11:0b:28:
                    84:c6:c2:2f:2a:fb:01:f9:36:7a:09:75:d1:33:88:
                    3c:73:41:5b:c8:bf:94:89:70:a1:f0:c0:b9:2e:50:
                    53:1e:b1:17:64:69:f4:2d:81:e0:a9:0d:0e:32:e9:
                    ba:55:8a:85:f1:1b:6f:49:79:b4:7f:88:c3:0d:3e:
                    54:88:9b:3d:1f:38:8c:04:f3:ee:6a:63:2b:f5:c6:
                    db:b4:83:aa:c4:78:41:3a:7d:4b:e1:c8:3e:71:ca:
                    1b:61:59:ea:c6:c4:ca:32:5e:c9:e9:bf:12:29:e6:
                    c6:c3:63:fe:a0:55:da:7a:f1:60:98:4d:26:ed:fa:
                    70:2d
                Exponent: 65537 (0x10001)
        X509v3 extensions:
            X509v3 Key Usage: 
                Digital Signature, Key Encipherment
            X509v3 Basic Constraints: 
                CA:FALSE
            Netscape Cert Type: 
                SSL Server
            Netscape Comment: 
                OpenSSL Generated Server Certificate
            X509v3 Subject Key Identifier: 
                53:3F:ED:5D:09:07:B3:65:7B:AB:45:C9:24:5B:09:77:80:0A:96:ED
            X509v3 Authority Key Identifier: 
                keyid:F4:A7:C0:CC:91:46:AF:64:F3:91:F2:27:F8:C8:B2:6F:8A:87:32:73
                DirName:/C=DE/ST=Hessen/O=privacyidea/CN=CA001
                serial:FB:C8:EB:AC:83:CD:12:07

            X509v3 Extended Key Usage: 
                TLS Web Server Authentication
    Signature Algorithm: sha256WithRSAEncryption
         9b:5f:86:d4:f4:20:e9:64:4d:cf:3b:6f:4f:fd:3e:1d:e4:e3:
         e4:27:7e:d8:09:2b:e2:2f:c4:11:89:5b:b2:68:59:a3:49:3b:
         e8:d1:97:50:ed:67:0f:aa:59:f0:4a:59:90:97:13:e4:79:81:
         e6:83:e8:ac:db:52:68:8f:8d:1d:11:49:9c:f1:69:d5:ce:78:
         38:ff:d6:ea:c2:42:c8:bd:f1:48:9b:e6:c1:55:0e:b2:21:cd:
         9f:a9:f0:3f:42:e4:52:91:b3:ef:00:c5:34:c6:4e:8d:bc:85:
         2f:5a:ce:73:53:a1:d1:ed:91:71:fc:1e:e0:ba:33:0c:6d:7f:
         60:55:d5:4b:e1:9d:43:e6:ae:9e:76:ba:97:a7:41:4b:80:78:
         f4:3a:79:35:04:1b:f0:51:a4:d8:bc:1e:71:e5:d0:f2:55:a0:
         9c:e5:3c:12:a1:8f:44:a8:f2:81:c0:77:fd:93:8e:9c:5d:60:
         5f:3c:eb:f9:7a:0f:07:a7:dd:c8:77:8c:2b:26:73:46:f3:01:
         0a:e3:ef:d6:99:25:92:36:2d:7c:93:fd:4e:df:3d:cf:60:ed:
         c1:a3:3a:eb:d6:58:84:30:a5:f6:85:55:de:62:16:0d:6b:b3:
         8b:25:cf:d1:78:66:26:90:f3:e4:59:91:e4:59:bc:9e:9c:41:
         93:65:33:cc
-----BEGIN CERTIFICATE-----
MIIEJjCCAw6gAwIBAgIEEAAA1TANBgkqhkiG9w0BAQsFADBEMQswCQYDVQQGEwJE
RTEPMA0GA1UECAwGSGVzc2VuMRQwEgYDVQQKDAtwcml2YWN5aWRlYTEOMAwGA1UE
AwwFQ0EwMDEwHhcNMTcwODI5MTIwODA2WhcNMTgwODI5MTIwODA2WjBUMQswCQYD
VQQGEwJERTEPMA0GA1UECAwGSGVzc2VuMRQwEgYDVQQKDAtwcml2YWN5aWRlYTEe
MBwGA1UEAwwVcmVxdWVzdGVyLmxvY2FsZG9tYWluMIIBIjANBgkqhkiG9w0BAQEF
AAOCAQ8AMIIBCgKCAQEAzb4UT/rOAT9CIhsdnK/dktJ/22y3PjlDQ2sTA/EF9Ad0
vHZpKAuvGY7X/OPNxljyyn8IbVP8BwJEJMa0NEyMBP4zDkDiILoCc1r39U9jbszG
tt9UHTc5fVE2Jl+93D+oi2uirrad1iHn30G4eigqaEjKqC3t4elGXlpybbSEOIeR
/ZQRCyiExsIvKvsB+TZ6CXXRM4g8c0FbyL+UiXCh8MC5LlBTHrEXZGn0LYHgqQ0O
Mum6VYqF8RtvSXm0f4jDDT5UiJs9HziMBPPuamMr9cbbtIOqxHhBOn1L4cg+ccob
YVnqxsTKMl7J6b8SKebGw2P+oFXaevFgmE0m7fpwLQIDAQABo4IBDjCCAQowCwYD
VR0PBAQDAgWgMAkGA1UdEwQCMAAwEQYJYIZIAYb4QgEBBAQDAgZAMDMGCWCGSAGG
+EIBDQQmFiRPcGVuU1NMIEdlbmVyYXRlZCBTZXJ2ZXIgQ2VydGlmaWNhdGUwHQYD
VR0OBBYEFFM/7V0JB7Nle6tFySRbCXeACpbtMHQGA1UdIwRtMGuAFPSnwMyRRq9k
85HyJ/jIsm+KhzJzoUikRjBEMQswCQYDVQQGEwJERTEPMA0GA1UECAwGSGVzc2Vu
MRQwEgYDVQQKDAtwcml2YWN5aWRlYTEOMAwGA1UEAwwFQ0EwMDGCCQD7yOusg80S
BzATBgNVHSUEDDAKBggrBgEFBQcDATANBgkqhkiG9w0BAQsFAAOCAQEAm1+G1PQg
6WRNzztvT/0+HeTj5Cd+2Akr4i/EEYlbsmhZo0k76NGXUO1nD6pZ8EpZkJcT5HmB
5oPorNtSaI+NHRFJnPFp1c54OP/W6sJCyL3xSJvmwVUOsiHNn6nwP0LkUpGz7wDF
NMZOjbyFL1rOc1Oh0e2Rcfwe4LozDG1/YFXVS+GdQ+aunna6l6dBS4B49Dp5NQQb
8FGk2LweceXQ8lWgnOU8EqGPRKjygcB3/ZOOnF1gXzzr+XoPB6fdyHeMKyZzRvMB
CuPv1pklkjYtfJP9Tt89z2DtwaM669ZYhDCl9oVV3mIWDWuziyXP0XhmJpDz5FmR
5Fm8npxBk2UzzA==
-----END CERTIFICATE-----
