Certificate:
    Data:
        Version: 3 (0x2)
        Serial Number: 268435679 (0x100000df)
    Signature Algorithm: sha256WithRSAEncryption
        Issuer: C=DE, ST=Hessen, O=privacyidea, CN=CA001
        Validity
            Not Before: Aug 29 12:49:27 2017 GMT
            Not After : Aug 29 12:49:27 2018 GMT
        Subject: CN=selfservice,CN=user,O=realm1/emailAddress=meine
        Subject Public Key Info:
            Public Key Algorithm: rsaEncryption
                Public-Key: (2048 bit)
                Modulus:
                    00:cf:3c:d4:33:0e:12:c4:e6:da:cd:b6:56:a1:1c:
                    26:bb:26:1c:8a:4a:73:a8:58:8a:b6:1e:b3:8b:99:
                    d2:1d:07:c2:92:89:79:c0:69:d8:c8:df:28:61:98:
                    1e:b3:fe:ae:2b:bd:78:a9:f7:6e:47:dc:a3:a0:16:
                    8c:85:02:c1:4e:92:fd:72:6e:f0:c8:03:29:9b:b8:
                    00:6e:c0:83:95:c8:34:20:36:9c:b3:e5:e4:e6:76:
                    73:a3:1a:ad:40:96:e0:53:54:00:ec:76:79:9a:c6:
                    0d:7e:b6:bd:29:ec:83:f3:cb:89:a4:cb:6c:00:ba:
                    0c:c5:78:0f:ff:69:b8:94:f4:04:70:43:3f:d8:9e:
                    d7:a7:fb:5d:ce:75:8e:da:e7:c4:07:b1:9d:de:6f:
                    88:4b:b6:4d:9a:cf:f9:bc:fa:9f:cd:32:6d:f6:3a:
                    0b:0d:23:42:78:ec:97:42:bf:0e:4d:60:56:e1:d3:
                    02:f2:19:cb:84:57:90:e5:70:a1:a2:83:35:86:e2:
                    da:86:9f:f9:8a:c4:79:b3:52:28:da:cb:bb:34:ca:
                    d3:da:91:4a:cf:8d:76:a2:b2:6b:9b:f9:96:fd:09:
                    2a:da:11:23:4d:f0:cb:d6:b2:b1:0e:12:6c:9a:19:
                    65:98:87:ca:e4:ee:24:ce:44:ac:90:8f:9d:1b:c5:
                    2a:9d
                Exponent: 65537 (0x10001)
        X509v3 extensions:
            X509v3 Key Usage: 
                Digital Signature, Key Encipherment
            X509v3 Basic Constraints: 
                CA:FALSE
            Netscape Cert Type: 
                SSL Server
            Netscape Comment: 
                OpenSSL Generated Server Certificate
            X509v3 Subject Key Identifier: 
                4D:07:90:AD:FF:1D:0D:E7:1A:DD:D6:2E:FA:BA:34:CB:AA:1F:24:C6
            X509v3 Authority Key Identifier: 
                keyid:F4:A7:C0:CC:91:46:AF:64:F3:91:F2:27:F8:C8:B2:6F:8A:87:32:73
                DirName:/C=DE/ST=Hessen/O=privacyidea/CN=CA001
                serial:FB:C8:EB:AC:83:CD:12:07

            X509v3 Extended Key Usage: 
                TLS Web Server Authentication
    Signature Algorithm: sha256WithRSAEncryption
         01:66:6a:c6:54:8b:51:db:ce:24:a0:a2:28:c1:22:a2:5f:29:
         ba:4f:e1:45:3e:e4:54:00:20:3b:a2:14:d2:cc:de:05:d5:f7:
         74:96:f3:49:b8:a8:19:3c:0b:68:47:96:18:a4:04:61:b0:ea:
         a7:7d:1a:f7:83:e2:88:a7:9f:c9:11:77:c2:07:80:53:cb:a7:
         a4:d9:89:8b:bf:48:b1:f2:96:84:84:2c:1d:c0:d2:4d:08:c6:
         64:55:2d:f3:97:3e:86:d6:4c:4f:6b:ce:1b:6f:b3:00:26:69:
         71:a0:89:f9:9f:6a:a0:fe:fe:ad:10:d6:37:e1:fb:b3:0d:d0:
         32:89:64:64:89:7e:e8:03:8a:a5:d7:4b:f4:12:36:0d:be:f6:
         f6:3e:d8:05:ce:25:9c:cd:89:8c:11:a5:0e:f3:94:20:ec:b9:
         32:b2:ef:fc:f2:80:8f:bf:83:04:34:e1:42:b1:df:71:03:9b:
         03:0b:84:71:18:f9:7b:d6:3d:63:47:b9:cb:06:1d:2c:98:9b:
         46:70:6e:6a:5c:eb:97:6b:1d:8a:a7:85:b8:d8:92:8c:b5:0c:
         e7:da:d3:79:0f:9a:ae:89:39:93:2e:9b:97:56:d6:85:8b:4c:
         d2:2c:7f:68:a4:90:c9:a3:37:f3:c0:b6:e3:0d:09:37:ef:dd:
         5c:9f:4b:3a
-----BEGIN CERTIFICATE-----
MIIEDzCCAvegAwIBAgIEEAAA3zANBgkqhkiG9w0BAQsFADBEMQswCQYDVQQGEwJE
RTEPMA0GA1UECAwGSGVzc2VuMRQwEgYDVQQKDAtwcml2YWN5aWRlYTEOMAwGA1UE
AwwFQ0EwMDEwHhcNMTcwODI5MTI0OTI3WhcNMTgwODI5MTI0OTI3WjA9MSUwIwYD
VQQDDBxzZWxmc2VydmljZSxDTj11c2VyLE89cmVhbG0xMRQwEgYJKoZIhvcNAQkB
FgVtZWluZTCCASIwDQYJKoZIhvcNAQEBBQADggEPADCCAQoCggEBAM881DMOEsTm
2s22VqEcJrsmHIpKc6hYirYes4uZ0h0HwpKJecBp2MjfKGGYHrP+riu9eKn3bkfc
o6AWjIUCwU6S/XJu8MgDKZu4AG7Ag5XINCA2nLPl5OZ2c6MarUCW4FNUAOx2eZrG
DX62vSnsg/PLiaTLbAC6DMV4D/9puJT0BHBDP9ie16f7Xc51jtrnxAexnd5viEu2
TZrP+bz6n80ybfY6Cw0jQnjsl0K/Dk1gVuHTAvIZy4RXkOVwoaKDNYbi2oaf+YrE
ebNSKNrLuzTK09qRSs+NdqKya5v5lv0JKtoRI03wy9aysQ4SbJoZZZiHyuTuJM5E
rJCPnRvFKp0CAwEAAaOCAQ4wggEKMAsGA1UdDwQEAwIFoDAJBgNVHRMEAjAAMBEG
CWCGSAGG+EIBAQQEAwIGQDAzBglghkgBhvhCAQ0EJhYkT3BlblNTTCBHZW5lcmF0
ZWQgU2VydmVyIENlcnRpZmljYXRlMB0GA1UdDgQWBBRNB5Ct/x0N5xrd1i76ujTL
qh8kxjB0BgNVHSMEbTBrgBT0p8DMkUavZPOR8if4yLJviocyc6FIpEYwRDELMAkG
A1UEBhMCREUxDzANBgNVBAgMBkhlc3NlbjEUMBIGA1UECgwLcHJpdmFjeWlkZWEx
DjAMBgNVBAMMBUNBMDAxggkA+8jrrIPNEgcwEwYDVR0lBAwwCgYIKwYBBQUHAwEw
DQYJKoZIhvcNAQELBQADggEBAAFmasZUi1HbziSgoijBIqJfKbpP4UU+5FQAIDui
FNLM3gXV93SW80m4qBk8C2hHlhikBGGw6qd9GveD4oinn8kRd8IHgFPLp6TZiYu/
SLHyloSELB3A0k0IxmRVLfOXPobWTE9rzhtvswAmaXGgifmfaqD+/q0Q1jfh+7MN
0DKJZGSJfugDiqXXS/QSNg2+9vY+2AXOJZzNiYwRpQ7zlCDsuTKy7/zygI+/gwQ0
4UKx33EDmwMLhHEY+XvWPWNHucsGHSyYm0Zwbmpc65drHYqnhbjYkoy1DOfa03kP
mq6JOZMum5dW1oWLTNIsf2ikkMmjN/PAtuMNCTfv3VyfSzo=
-----END CERTIFICATE-----
