Certificate:
    Data:
        Version: 3 (0x2)
        Serial Number: 268435677 (0x100000dd)
    Signature Algorithm: sha256WithRSAEncryption
        Issuer: C=DE, ST=Hessen, O=privacyidea, CN=CA001
        Validity
            Not Before: Aug 29 12:41:06 2017 GMT
            Not After : Aug 29 12:41:06 2018 GMT
        Subject: C=DE, ST=Hessen, O=privacyidea, CN=requester.localdomain
        Subject Public Key Info:
            Public Key Algorithm: rsaEncryption
                Public-Key: (2048 bit)
                Modulus:
                    00:cd:be:14:4f:fa:ce:01:3f:42:22:1b:1d:9c:af:
                    dd:92:d2:7f:db:6c:b7:3e:39:43:43:6b:13:03:f1:
                    05:f4:07:74:bc:76:69:28:0b:af:19:8e:d7:fc:e3:
                    cd:c6:58:f2:ca:7f:08:6d:53:fc:07:02:44:24:c6:
                    b4:34:4c:8c:04:fe:33:0e:40:e2:20:ba:02:73:5a:
                    f7:f5:4f:63:6e:cc:c6:b6:df:54:1d:37:39:7d:51:
                    36:26:5f:bd:dc:3f:a8:8b:6b:a2:ae:b6:9d:d6:21:
                    e7:df:41:b8:7a:28:2a:68:48:ca:a8:2d:ed:e1:e9:
                    46:5e:5a:72:6d:b4:84:38:87:91:fd:94:11:0b:28:
                    84:c6:c2:2f:2a:fb:01:f9:36:7a:09:75:d1:33:88:
                    3c:73:41:5b:c8:bf:94:89:70:a1:f0:c0:b9:2e:50:
                    53:1e:b1:17:64:69:f4:2d:81:e0:a9:0d:0e:32:e9:
                    ba:55:8a:85:f1:1b:6f:49:79:b4:7f:88:c3:0d:3e:
                    54:88:9b:3d:1f:38:8c:04:f3:ee:6a:63:2b:f5:c6:
                    db:b4:83:aa:c4:78:41:3a:7d:4b:e1:c8:3e:71:ca:
                    1b:61:59:ea:c6:c4:ca:32:5e:c9:e9:bf:12:29:e6:
                    c6:c3:63:fe:a0:55:da:7a:f1:60:98:4d:26:ed:fa:
                    70:2d
                Exponent: 65537 (0x10001)
        X509v3 extensions:
            X509v3 Key Usage: 
                Digital Signature, Key Encipherment
            X509v3 Basic Constraints: 
                CA:FALSE
            Netscape Cert Type: 
                SSL Server
            Netscape Comment: 
                OpenSSL Generated Server Certificate
            X509v3 Subject Key Identifier: 
                53:3F:ED:5D:09:07:B3:65:7B:AB:45:C9:24:5B:09:77:80:0A:96:ED
            X509v3 Authority Key Identifier: 
                keyid:F4:A7:C0:CC:91:46:AF:64:F3:91:F2:27:F8:C8:B2:6F:8A:87:32:73
                DirName:/C=DE/ST=Hessen/O=privacyidea/CN=CA001
                serial:FB:C8:EB:AC:83:CD:12:07

            X509v3 Extended Key Usage: 
                TLS Web Server Authentication
    Signature Algorithm: sha256WithRSAEncryption
         ba:ac:49:d4:42:55:7d:ad:08:54:48:de:3e:ab:77:4d:89:54:
         9a:81:92:9d:98:94:ca:10:fa:56:e3:93:87:44:71:2d:f3:3e:
         51:cf:6c:73:11:89:1c:dc:50:e1:ce:46:00:1d:8a:27:5e:d9:
         49:26:6d:51:3d:04:0e:8d:82:d3:90:e1:70:35:f1:3c:85:5d:
         6b:b5:a3:4b:ee:59:51:b5:d6:b0:b0:da:e4:52:f4:23:89:9c:
         bc:23:60:8c:5d:a8:be:ed:f5:92:45:b6:47:cf:3a:5b:af:7b:
         84:e1:bc:c0:91:66:80:1f:a7:e2:5e:ce:47:cb:0e:a9:7c:07:
         05:c1:e3:6f:94:74:22:88:17:b1:99:62:b7:03:b3:65:2e:d6:
         3d:23:18:02:4c:85:e7:3a:03:8d:4a:03:9d:df:56:d2:a3:fc:
         64:4c:46:80:75:ea:39:1e:78:22:2b:f0:01:5d:52:30:bc:31:
         2d:3a:27:a9:52:4a:64:c4:df:62:f5:60:18:ed:e6:8d:0f:66:
         d2:df:d4:41:8f:f5:17:1b:3c:7e:11:2c:11:ca:e6:39:aa:b7:
         1e:12:bc:1c:e7:07:6d:ab:c7:e0:e8:70:e1:6c:e6:fa:ca:f8:
         f0:3c:47:57:0d:0e:19:da:6b:5f:9d:e9:f0:f3:fc:30:e9:f1:
         3f:f7:c1:4e
-----BEGIN CERTIFICATE-----
MIIEJjCCAw6gAwIBAgIEEAAA3TANBgkqhkiG9w0BAQsFADBEMQswCQYDVQQGEwJE
RTEPMA0GA1UECAwGSGVzc2VuMRQwEgYDVQQKDAtwcml2YWN5aWRlYTEOMAwGA1UE
AwwFQ0EwMDEwHhcNMTcwODI5MTI0MTA2WhcNMTgwODI5MTI0MTA2WjBUMQswCQYD
VQQGEwJERTEPMA0GA1UECAwGSGVzc2VuMRQwEgYDVQQKDAtwcml2YWN5aWRlYTEe
MBwGA1UEAwwVcmVxdWVzdGVyLmxvY2FsZG9tYWluMIIBIjANBgkqhkiG9w0BAQEF
AAOCAQ8AMIIBCgKCAQEAzb4UT/rOAT9CIhsdnK/dktJ/22y3PjlDQ2sTA/EF9Ad0
vHZpKAuvGY7X/OPNxljyyn8IbVP8BwJEJMa0NEyMBP4zDkDiILoCc1r39U9jbszG
tt9UHTc5fVE2Jl+93D+oi2uirrad1iHn30G4eigqaEjKqC3t4elGXlpybbSEOIeR
/ZQRCyiExsIvKvsB+TZ6CXXRM4g8c0FbyL+UiXCh8MC5LlBTHrEXZGn0LYHgqQ0O
Mum6VYqF8RtvSXm0f4jDDT5UiJs9HziMBPPuamMr9cbbtIOqxHhBOn1L4cg+ccob
YVnqxsTKMl7J6b8SKebGw2P+oFXaevFgmE0m7fpwLQIDAQABo4IBDjCCAQowCwYD
VR0PBAQDAgWgMAkGA1UdEwQCMAAwEQYJYIZIAYb4QgEBBAQDAgZAMDMGCWCGSAGG
+EIBDQQmFiRPcGVuU1NMIEdlbmVyYXRlZCBTZXJ2ZXIgQ2VydGlmaWNhdGUwHQYD
VR0OBBYEFFM/7V0JB7Nle6tFySRbCXeACpbtMHQGA1UdIwRtMGuAFPSnwMyRRq9k
85HyJ/jIsm+KhzJzoUikRjBEMQswCQYDVQQGEwJERTEPMA0GA1UECAwGSGVzc2Vu
MRQwEgYDVQQKDAtwcml2YWN5aWRlYTEOMAwGA1UEAwwFQ0EwMDGCCQD7yOusg80S
BzATBgNVHSUEDDAKBggrBgEFBQcDATANBgkqhkiG9w0BAQsFAAOCAQEAuqxJ1EJV
fa0IVEjePqt3TYlUmoGSnZiUyhD6VuOTh0RxLfM+Uc9scxGJHNxQ4c5GAB2KJ17Z
SSZtUT0EDo2C05DhcDXxPIVda7WjS+5ZUbXWsLDa5FL0I4mcvCNgjF2ovu31kkW2
R886W697hOG8wJFmgB+n4l7OR8sOqXwHBcHjb5R0IogXsZlitwOzZS7WPSMYAkyF
5zoDjUoDnd9W0qP8ZExGgHXqOR54IivwAV1SMLwxLTonqVJKZMTfYvVgGO3mjQ9m
0t/UQY/1Fxs8fhEsEcrmOaq3HhK8HOcHbavH4Ohw4Wzm+sr48DxHVw0OGdprX53p
8PP8MOnxP/fBTg==
-----END CERTIFICATE-----
