Certificate:
    Data:
        Version: 3 (0x2)
        Serial Number: 268435665 (0x100000d1)
    Signature Algorithm: sha256WithRSAEncryption
        Issuer: C=DE, ST=Hessen, O=privacyidea, CN=CA001
        Validity
            Not Before: Sep  5 11:16:00 2017 GMT
            Not After : Sep  5 11:16:00 2018 GMT
        Subject: C=DE, ST=Hessen, O=privacyidea, CN=requester.localdomain
        Subject Public Key Info:
            Public Key Algorithm: rsaEncryption
                Public-Key: (2048 bit)
                Modulus:
                    00:cd:be:14:4f:fa:ce:01:3f:42:22:1b:1d:9c:af:
                    dd:92:d2:7f:db:6c:b7:3e:39:43:43:6b:13:03:f1:
                    05:f4:07:74:bc:76:69:28:0b:af:19:8e:d7:fc:e3:
                    cd:c6:58:f2:ca:7f:08:6d:53:fc:07:02:44:24:c6:
                    b4:34:4c:8c:04:fe:33:0e:40:e2:20:ba:02:73:5a:
                    f7:f5:4f:63:6e:cc:c6:b6:df:54:1d:37:39:7d:51:
                    36:26:5f:bd:dc:3f:a8:8b:6b:a2:ae:b6:9d:d6:21:
                    e7:df:41:b8:7a:28:2a:68:48:ca:a8:2d:ed:e1:e9:
                    46:5e:5a:72:6d:b4:84:38:87:91:fd:94:11:0b:28:
                    84:c6:c2:2f:2a:fb:01:f9:36:7a:09:75:d1:33:88:
                    3c:73:41:5b:c8:bf:94:89:70:a1:f0:c0:b9:2e:50:
                    53:1e:b1:17:64:69:f4:2d:81:e0:a9:0d:0e:32:e9:
                    ba:55:8a:85:f1:1b:6f:49:79:b4:7f:88:c3:0d:3e:
                    54:88:9b:3d:1f:38:8c:04:f3:ee:6a:63:2b:f5:c6:
                    db:b4:83:aa:c4:78:41:3a:7d:4b:e1:c8:3e:71:ca:
                    1b:61:59:ea:c6:c4:ca:32:5e:c9:e9:bf:12:29:e6:
                    c6:c3:63:fe:a0:55:da:7a:f1:60:98:4d:26:ed:fa:
                    70:2d
                Exponent: 65537 (0x10001)
        X509v3 extensions:
            X509v3 Key Usage: 
                Digital Signature, Key Encipherment
            X509v3 Basic Constraints: 
                CA:FALSE
            Netscape Cert Type: 
                SSL Server
            Netscape Comment: 
                OpenSSL Generated Server Certificate
            X509v3 Subject Key Identifier: 
                53:3F:ED:5D:09:07:B3:65:7B:AB:45:C9:24:5B:09:77:80:0A:96:ED
            X509v3 Authority Key Identifier: 
                keyid:F4:A7:C0:CC:91:46:AF:64:F3:91:F2:27:F8:C8:B2:6F:8A:87:32:73
                DirName:/C=DE/ST=Hessen/O=privacyidea/CN=CA001
                serial:FB:C8:EB:AC:83:CD:12:07

            X509v3 Extended Key Usage: 
                TLS Web Server Authentication
    Signature Algorithm: sha256WithRSAEncryption
         8c:9f:2d:c3:fa:90:55:98:6a:43:1f:c0:a4:8d:46:81:33:0c:
         66:c6:f8:ea:d9:bf:15:ad:e1:5b:e1:82:93:6d:f3:19:77:79:
         19:36:29:64:76:53:96:42:19:42:95:f5:fd:6b:8d:1e:a4:5d:
         a5:dd:df:e3:95:71:35:6f:c3:df:07:5c:45:43:ab:4a:5d:70:
         23:fc:3a:e8:b7:b3:91:6d:44:1e:a9:bb:b0:6c:94:39:81:6c:
         b7:f7:5d:db:92:73:9e:1b:a3:6a:7d:9d:80:c3:97:62:59:f2:
         7b:0c:09:48:54:19:f9:2a:ff:07:59:90:8e:86:86:d8:0a:be:
         36:94:8a:50:3e:6e:f6:94:ba:f8:ca:91:37:79:cd:3d:3b:3c:
         9a:ba:ac:e7:9f:ba:28:16:ef:bd:0d:09:48:9c:1b:ad:91:49:
         79:32:67:95:6f:dc:5a:eb:94:a2:a6:c2:01:f7:d6:62:b2:7b:
         d9:83:ac:62:a0:d7:85:84:36:92:59:aa:b0:4b:23:5e:cf:91:
         cd:d9:a6:93:44:42:5a:8a:4c:09:6f:13:4d:fe:c7:bc:62:fb:
         67:bd:04:c8:c3:36:0a:50:2f:98:5e:dd:fa:46:2b:cd:54:3d:
         8f:8d:f0:0c:bf:d3:84:b6:3c:a1:d5:c4:6e:39:85:bb:dd:bf:
         02:90:db:9a
-----BEGIN CERTIFICATE-----
MIIEJjCCAw6gAwIBAgIEEAAA0TANBgkqhkiG9w0BAQsFADBEMQswCQYDVQQGEwJE
RTEPMA0GA1UECAwGSGVzc2VuMRQwEgYDVQQKDAtwcml2YWN5aWRlYTEOMAwGA1UE
AwwFQ0EwMDEwHhcNMTcwOTA1MTExNjAwWhcNMTgwOTA1MTExNjAwWjBUMQswCQYD
VQQGEwJERTEPMA0GA1UECAwGSGVzc2VuMRQwEgYDVQQKDAtwcml2YWN5aWRlYTEe
MBwGA1UEAwwVcmVxdWVzdGVyLmxvY2FsZG9tYWluMIIBIjANBgkqhkiG9w0BAQEF
AAOCAQ8AMIIBCgKCAQEAzb4UT/rOAT9CIhsdnK/dktJ/22y3PjlDQ2sTA/EF9Ad0
vHZpKAuvGY7X/OPNxljyyn8IbVP8BwJEJMa0NEyMBP4zDkDiILoCc1r39U9jbszG
tt9UHTc5fVE2Jl+93D+oi2uirrad1iHn30G4eigqaEjKqC3t4elGXlpybbSEOIeR
/ZQRCyiExsIvKvsB+TZ6CXXRM4g8c0FbyL+UiXCh8MC5LlBTHrEXZGn0LYHgqQ0O
Mum6VYqF8RtvSXm0f4jDDT5UiJs9HziMBPPuamMr9cbbtIOqxHhBOn1L4cg+ccob
YVnqxsTKMl7J6b8SKebGw2P+oFXaevFgmE0m7fpwLQIDAQABo4IBDjCCAQowCwYD
VR0PBAQDAgWgMAkGA1UdEwQCMAAwEQYJYIZIAYb4QgEBBAQDAgZAMDMGCWCGSAGG
+EIBDQQmFiRPcGVuU1NMIEdlbmVyYXRlZCBTZXJ2ZXIgQ2VydGlmaWNhdGUwHQYD
VR0OBBYEFFM/7V0JB7Nle6tFySRbCXeACpbtMHQGA1UdIwRtMGuAFPSnwMyRRq9k
85HyJ/jIsm+KhzJzoUikRjBEMQswCQYDVQQGEwJERTEPMA0GA1UECAwGSGVzc2Vu
MRQwEgYDVQQKDAtwcml2YWN5aWRlYTEOMAwGA1UEAwwFQ0EwMDGCCQD7yOusg80S
BzATBgNVHSUEDDAKBggrBgEFBQcDATANBgkqhkiG9w0BAQsFAAOCAQEAjJ8tw/qQ
VZhqQx/ApI1GgTMMZsb46tm/Fa3hW+GCk23zGXd5GTYpZHZTlkIZQpX1/WuNHqRd
pd3f45VxNW/D3wdcRUOrSl1wI/w66LezkW1EHqm7sGyUOYFst/dd25Jznhujan2d
gMOXYlnyewwJSFQZ+Sr/B1mQjoaG2Aq+NpSKUD5u9pS6+MqRN3nNPTs8mrqs55+6
KBbvvQ0JSJwbrZFJeTJnlW/cWuuUoqbCAffWYrJ72YOsYqDXhYQ2klmqsEsjXs+R
zdmmk0RCWopMCW8TTf7HvGL7Z70EyMM2ClAvmF7d+kYrzVQ9j43wDL/ThLY8odXE
bjmFu92/ApDbmg==
-----END CERTIFICATE-----
