Certificate:
    Data:
        Version: 3 (0x2)
        Serial Number: 268435667 (0x100000d3)
    Signature Algorithm: sha256WithRSAEncryption
        Issuer: C=DE, ST=Hessen, O=privacyidea, CN=CA001
        Validity
            Not Before: Sep  5 11:16:00 2017 GMT
            Not After : Sep  5 11:16:00 2018 GMT
        Subject: CN=Steve Test/emailAddress=steve@openssl.org
        Subject Public Key Info:
            Public Key Algorithm: rsaEncryption
                Public-Key: (2048 bit)
                Modulus:
                    00:d2:81:89:20:51:48:0f:73:f4:11:32:24:d5:1f:
                    1c:fd:5c:f5:b6:e6:c5:f0:52:81:dc:d2:af:66:4a:
                    7c:93:31:61:5c:af:d1:6d:06:70:03:60:7c:72:0c:
                    88:dd:49:cd:9e:02:6c:d2:5a:d7:53:0f:f3:da:be:
                    69:64:b5:0f:0c:00:e3:b3:50:47:a3:b3:9b:ba:13:
                    50:d6:58:5a:4b:ab:39:e0:11:ca:0a:27:67:03:78:
                    22:66:6d:92:1e:1b:5c:49:ae:e6:6b:d1:8e:3b:9d:
                    06:d3:c6:ac:4d:53:43:10:ab:e8:96:c1:87:82:97:
                    99:8f:20:d3:99:12:37:31:84:e1:8a:ff:29:03:5f:
                    22:90:3e:7f:9b:e0:20:c1:ad:dc:ae:4c:39:1a:31:
                    96:17:02:8c:b2:d9:b4:0d:20:12:9b:7d:86:54:fd:
                    33:fd:c1:2a:62:46:f8:60:96:cf:6e:01:6f:22:df:
                    13:47:e7:97:ec:05:72:23:a3:62:f8:fa:ef:ac:9c:
                    72:f0:37:cb:2f:37:cf:90:a8:27:51:86:c6:d7:78:
                    08:8f:7e:25:a2:15:70:a2:fb:1c:b6:15:5e:a0:97:
                    8b:81:4c:09:28:8a:27:3b:94:bc:71:db:5b:71:37:
                    9a:2b:16:e0:6f:b5:c9:f5:4b:4f:20:ba:65:cf:af:
                    ad:ad
                Exponent: 65537 (0x10001)
        X509v3 extensions:
            X509v3 Key Usage: 
                Digital Signature, Key Encipherment
            X509v3 Basic Constraints: 
                CA:FALSE
            Netscape Cert Type: 
                SSL Server
            Netscape Comment: 
                OpenSSL Generated Server Certificate
            X509v3 Subject Key Identifier: 
                E5:25:6D:3E:AF:0D:DD:3F:4C:F2:45:19:39:D5:14:DB:7E:9C:C0:AD
            X509v3 Authority Key Identifier: 
                keyid:F4:A7:C0:CC:91:46:AF:64:F3:91:F2:27:F8:C8:B2:6F:8A:87:32:73
                DirName:/C=DE/ST=Hessen/O=privacyidea/CN=CA001
                serial:FB:C8:EB:AC:83:CD:12:07

            X509v3 Extended Key Usage: 
                TLS Web Server Authentication
    Signature Algorithm: sha256WithRSAEncryption
         10:74:f1:7b:ab:9b:81:b6:aa:45:56:1c:24:17:1f:0d:b5:9f:
         79:1c:2d:c2:85:b2:70:5b:38:21:d0:6d:ba:dd:20:05:24:63:
         9c:23:31:02:a1:54:71:4c:d4:ae:5a:4d:75:a6:5e:9e:53:2b:
         d9:b3:a3:ac:d6:09:bf:50:94:82:2c:c7:02:9a:e1:40:79:ab:
         56:d0:f4:75:a4:2c:2b:7c:f3:8f:d5:b2:16:c9:9f:f3:c3:fb:
         39:b0:86:3e:2a:48:75:ee:03:f5:8d:42:cc:ff:c3:ce:07:f8:
         44:ba:f0:6b:b5:8c:fa:cb:47:57:e5:3d:d2:ab:df:66:14:52:
         2e:d1:08:84:bc:4d:66:2f:32:a7:17:ef:bf:5d:dd:65:4d:0a:
         92:1c:c9:07:f7:7c:0b:60:0b:11:e3:b9:af:46:18:01:4d:34:
         e4:d7:b4:5b:7b:f3:3d:d2:3d:58:b7:ce:1d:96:89:58:7a:b3:
         76:e7:f8:33:7c:48:9f:71:44:3f:49:91:d1:d1:7a:28:6e:3a:
         90:e5:3a:c1:c0:44:82:97:ec:6f:6a:d2:af:01:9b:59:ca:2c:
         aa:0c:37:1e:7e:e5:64:8a:8c:fa:c3:00:17:cf:c6:4b:c5:df:
         a7:fe:95:cf:e7:b9:a8:ae:2a:43:18:ec:5f:ae:fa:90:57:42:
         b7:a0:49:0f
-----BEGIN CERTIFICATE-----
MIIECTCCAvGgAwIBAgIEEAAA0zANBgkqhkiG9w0BAQsFADBEMQswCQYDVQQGEwJE
RTEPMA0GA1UECAwGSGVzc2VuMRQwEgYDVQQKDAtwcml2YWN5aWRlYTEOMAwGA1UE
AwwFQ0EwMDEwHhcNMTcwOTA1MTExNjAwWhcNMTgwOTA1MTExNjAwWjA3MRMwEQYD
VQQDDApTdGV2ZSBUZXN0MSAwHgYJKoZIhvcNAQkBFhFzdGV2ZUBvcGVuc3NsLm9y
ZzCCASIwDQYJKoZIhvcNAQEBBQADggEPADCCAQoCggEBANKBiSBRSA9z9BEyJNUf
HP1c9bbmxfBSgdzSr2ZKfJMxYVyv0W0GcANgfHIMiN1JzZ4CbNJa11MP89q+aWS1
DwwA47NQR6Ozm7oTUNZYWkurOeARygonZwN4ImZtkh4bXEmu5mvRjjudBtPGrE1T
QxCr6JbBh4KXmY8g05kSNzGE4Yr/KQNfIpA+f5vgIMGt3K5MORoxlhcCjLLZtA0g
Ept9hlT9M/3BKmJG+GCWz24BbyLfE0fnl+wFciOjYvj676yccvA3yy83z5CoJ1GG
xtd4CI9+JaIVcKL7HLYVXqCXi4FMCSiKJzuUvHHbW3E3misW4G+1yfVLTyC6Zc+v
ra0CAwEAAaOCAQ4wggEKMAsGA1UdDwQEAwIFoDAJBgNVHRMEAjAAMBEGCWCGSAGG
+EIBAQQEAwIGQDAzBglghkgBhvhCAQ0EJhYkT3BlblNTTCBHZW5lcmF0ZWQgU2Vy
dmVyIENlcnRpZmljYXRlMB0GA1UdDgQWBBTlJW0+rw3dP0zyRRk51RTbfpzArTB0
BgNVHSMEbTBrgBT0p8DMkUavZPOR8if4yLJviocyc6FIpEYwRDELMAkGA1UEBhMC
REUxDzANBgNVBAgMBkhlc3NlbjEUMBIGA1UECgwLcHJpdmFjeWlkZWExDjAMBgNV
BAMMBUNBMDAxggkA+8jrrIPNEgcwEwYDVR0lBAwwCgYIKwYBBQUHAwEwDQYJKoZI
hvcNAQELBQADggEBABB08Xurm4G2qkVWHCQXHw21n3kcLcKFsnBbOCHQbbrdIAUk
Y5wjMQKhVHFM1K5aTXWmXp5TK9mzo6zWCb9QlIIsxwKa4UB5q1bQ9HWkLCt884/V
shbJn/PD+zmwhj4qSHXuA/WNQsz/w84H+ES68Gu1jPrLR1flPdKr32YUUi7RCIS8
TWYvMqcX779d3WVNCpIcyQf3fAtgCxHjua9GGAFNNOTXtFt78z3SPVi3zh2WiVh6
s3bn+DN8SJ9xRD9JkdHReihuOpDlOsHARIKX7G9q0q8Bm1nKLKoMNx5+5WSKjPrD
ABfPxkvF36f+lc/nuaiuKkMY7F+u+pBXQregSQ8=
-----END CERTIFICATE-----
