Certificate:
    Data:
        Version: 3 (0x2)
        Serial Number: 268435678 (0x100000de)
    Signature Algorithm: sha256WithRSAEncryption
        Issuer: C=DE, ST=Hessen, O=privacyidea, CN=CA001
        Validity
            Not Before: Aug 29 12:41:07 2017 GMT
            Not After : Aug 29 12:41:07 2018 GMT
        Subject: OU=realm1, CN=cornelius/emailAddress=user@localhost.localdomain
        Subject Public Key Info:
            Public Key Algorithm: rsaEncryption
                Public-Key: (2048 bit)
                Modulus:
                    00:be:48:bc:e1:7e:be:07:05:5e:96:1c:ab:d1:cc:
                    c4:1c:42:18:3f:f7:ef:7c:64:3e:ad:39:c7:da:a9:
                    b8:bc:25:1c:08:c5:98:4c:c6:95:08:8c:1a:7b:40:
                    c1:8e:47:be:9d:4a:0d:e1:1f:38:2d:03:37:a5:af:
                    0d:64:e1:29:73:07:54:c3:5a:c0:91:94:1e:f4:b6:
                    6b:5e:05:f9:7a:c4:d6:94:ed:46:21:3f:d4:9b:ff:
                    f9:27:69:53:21:75:22:08:fb:14:72:34:e2:0c:b9:
                    ee:15:b8:59:11:32:dd:b4:66:71:79:dc:e0:26:cc:
                    fa:d9:b1:d9:58:d5:9f:c8:e8:8b:4b:cf:4e:8f:95:
                    cc:86:51:f6:54:f2:01:6d:41:39:55:d7:49:a4:c9:
                    22:a8:59:ee:1d:fb:e1:79:f3:52:76:56:04:92:49:
                    54:5c:ba:01:8c:05:1d:c5:68:4e:8a:ce:4b:5d:b6:
                    cd:ee:ef:8a:4f:2f:05:35:60:ea:49:6f:20:a9:00:
                    50:c0:a6:9b:ec:93:79:f8:ef:a0:ad:ed:24:d5:9a:
                    cb:62:98:98:b9:d6:ef:d0:a4:f8:c9:dc:01:fc:a7:
                    b4:49:f4:76:95:3a:55:b6:25:04:5f:15:44:42:f9:
                    b9:87:38:8d:53:78:fc:06:48:37:df:a9:e2:77:77:
                    c7:19
                Exponent: 65537 (0x10001)
        X509v3 extensions:
            X509v3 Key Usage: 
                Digital Signature, Key Encipherment
            X509v3 Basic Constraints: 
                CA:FALSE
            Netscape Cert Type: 
                SSL Server
            Netscape Comment: 
                OpenSSL Generated Server Certificate
            X509v3 Subject Key Identifier: 
                2B:59:D4:22:18:5D:F2:F5:52:00:3D:69:CD:04:50:0A:89:F8:25:BD
            X509v3 Authority Key Identifier: 
                keyid:F4:A7:C0:CC:91:46:AF:64:F3:91:F2:27:F8:C8:B2:6F:8A:87:32:73
                DirName:/C=DE/ST=Hessen/O=privacyidea/CN=CA001
                serial:FB:C8:EB:AC:83:CD:12:07

            X509v3 Extended Key Usage: 
                TLS Web Server Authentication
    Signature Algorithm: sha256WithRSAEncryption
         12:bb:91:bf:c8:b4:de:77:ad:b8:e5:ca:16:ed:61:f3:1f:54:
         b0:f0:a0:9d:18:85:e8:2d:5f:b5:b4:5f:f8:5f:15:57:be:04:
         52:ef:ba:44:6f:35:ce:b2:9d:dc:76:0f:4b:2a:f5:4c:13:0d:
         0d:67:ff:47:61:f7:db:8c:3a:14:47:1f:bf:ad:c6:be:64:f3:
         21:2e:18:33:6b:35:37:1d:73:5d:8c:0d:22:e3:d7:d6:a6:54:
         95:9e:60:5b:d1:50:eb:33:8a:9a:4b:81:a6:df:d5:48:ee:1f:
         bf:03:54:b3:df:27:89:37:d4:a4:27:38:8e:2f:94:da:02:26:
         c8:07:ad:a7:fd:2c:2f:0b:ea:0f:50:09:13:5f:53:08:df:59:
         fd:55:24:91:f3:22:cf:da:9f:6c:6f:c8:0c:f7:61:34:76:ef:
         b8:fa:79:d7:e5:90:58:26:b3:ba:53:56:60:30:b1:58:89:73:
         ed:71:0c:50:5a:14:20:8e:51:7d:1e:76:ba:e6:6a:0f:cb:c0:
         df:de:7f:d0:51:ee:49:44:15:1e:23:49:88:13:3d:aa:0e:02:
         c5:d1:e5:a9:4e:fd:7b:65:03:dd:ab:9a:21:d4:93:44:f3:c0:
         23:01:31:81:85:6b:66:45:40:91:97:7a:da:22:f9:b3:02:94:
         2c:33:38:e5
-----BEGIN CERTIFICATE-----
MIIEIjCCAwqgAwIBAgIEEAAA3jANBgkqhkiG9w0BAQsFADBEMQswCQYDVQQGEwJE
RTEPMA0GA1UECAwGSGVzc2VuMRQwEgYDVQQKDAtwcml2YWN5aWRlYTEOMAwGA1UE
AwwFQ0EwMDEwHhcNMTcwODI5MTI0MTA3WhcNMTgwODI5MTI0MTA3WjBQMQ8wDQYD
VQQLDAZyZWFsbTExEjAQBgNVBAMMCWNvcm5lbGl1czEpMCcGCSqGSIb3DQEJARYa
dXNlckBsb2NhbGhvc3QubG9jYWxkb21haW4wggEiMA0GCSqGSIb3DQEBAQUAA4IB
DwAwggEKAoIBAQC+SLzhfr4HBV6WHKvRzMQcQhg/9+98ZD6tOcfaqbi8JRwIxZhM
xpUIjBp7QMGOR76dSg3hHzgtAzelrw1k4SlzB1TDWsCRlB70tmteBfl6xNaU7UYh
P9Sb//knaVMhdSII+xRyNOIMue4VuFkRMt20ZnF53OAmzPrZsdlY1Z/I6ItLz06P
lcyGUfZU8gFtQTlV10mkySKoWe4d++F581J2VgSSSVRcugGMBR3FaE6Kzktdts3u
74pPLwU1YOpJbyCpAFDAppvsk3n476Ct7STVmstimJi51u/QpPjJ3AH8p7RJ9HaV
OlW2JQRfFURC+bmHOI1TePwGSDffqeJ3d8cZAgMBAAGjggEOMIIBCjALBgNVHQ8E
BAMCBaAwCQYDVR0TBAIwADARBglghkgBhvhCAQEEBAMCBkAwMwYJYIZIAYb4QgEN
BCYWJE9wZW5TU0wgR2VuZXJhdGVkIFNlcnZlciBDZXJ0aWZpY2F0ZTAdBgNVHQ4E
FgQUK1nUIhhd8vVSAD1pzQRQCon4Jb0wdAYDVR0jBG0wa4AU9KfAzJFGr2TzkfIn
+Miyb4qHMnOhSKRGMEQxCzAJBgNVBAYTAkRFMQ8wDQYDVQQIDAZIZXNzZW4xFDAS
BgNVBAoMC3ByaXZhY3lpZGVhMQ4wDAYDVQQDDAVDQTAwMYIJAPvI66yDzRIHMBMG
A1UdJQQMMAoGCCsGAQUFBwMBMA0GCSqGSIb3DQEBCwUAA4IBAQASu5G/yLTed624
5coW7WHzH1Sw8KCdGIXoLV+1tF/4XxVXvgRS77pEbzXOsp3cdg9LKvVMEw0NZ/9H
YffbjDoURx+/rca+ZPMhLhgzazU3HXNdjA0i49fWplSVnmBb0VDrM4qaS4Gm39VI
7h+/A1Sz3yeJN9SkJziOL5TaAibIB62n/SwvC+oPUAkTX1MI31n9VSSR8yLP2p9s
b8gM92E0du+4+nnX5ZBYJrO6U1ZgMLFYiXPtcQxQWhQgjlF9Hna65moPy8Df3n/Q
Ue5JRBUeI0mIEz2qDgLF0eWpTv17ZQPdq5oh1JNE88AjATGBhWtmRUCRl3raIvmz
ApQsMzjl
-----END CERTIFICATE-----
