Certificate:
    Data:
        Version: 3 (0x2)
        Serial Number: 268435670 (0x100000d6)
    Signature Algorithm: sha256WithRSAEncryption
        Issuer: C=DE, ST=Hessen, O=privacyidea, CN=CA001
        Validity
            Not Before: Sep  5 11:19:39 2017 GMT
            Not After : Sep  5 11:19:39 2018 GMT
        Subject: OU=realm1, CN=cornelius/emailAddress=user@localhost.localdomain
        Subject Public Key Info:
            Public Key Algorithm: rsaEncryption
                Public-Key: (2048 bit)
                Modulus:
                    00:a9:a1:9d:43:c7:64:7e:3d:d9:ff:5e:3b:62:3f:
                    16:4b:e0:45:5e:5d:59:d2:0f:f5:d0:cb:54:20:53:
                    3a:7c:a2:5d:78:48:23:9f:8f:1d:bf:f6:96:e7:60:
                    83:4c:58:99:7f:11:93:62:17:da:2a:a8:f2:1b:b0:
                    3a:68:e3:dd:de:6b:b4:83:15:43:d6:12:62:df:02:
                    85:67:4d:00:23:33:8a:3e:55:92:b8:20:3a:a6:b7:
                    02:da:12:be:7c:a0:d4:e4:d3:e1:45:67:d3:6c:cf:
                    e6:06:c7:a7:66:5a:54:e8:7c:9a:1d:24:63:f9:6e:
                    77:e6:5d:c3:4a:20:21:64:09:b7:35:2e:c3:c3:36:
                    2e:0d:f0:78:b2:e5:97:0e:b7:73:05:c7:b3:64:ef:
                    89:4a:18:1c:ce:d7:e8:e3:ae:10:5c:87:3c:33:e3:
                    0b:32:4c:68:00:a0:72:b1:bd:a0:c7:76:ec:2d:f0:
                    51:c0:47:86:ca:b9:ab:4c:f6:8f:70:b4:aa:d7:c5:
                    97:1b:12:90:0c:dc:b3:e3:9a:77:f4:dd:56:14:f6:
                    4f:4e:b5:20:92:39:a9:08:63:fb:c1:d1:2f:1e:38:
                    0f:13:a7:65:37:20:8f:99:9e:ab:7c:09:1d:14:ac:
                    bd:c4:29:a4:0d:aa:e7:82:67:6d:db:7f:03:05:29:
                    ac:3d
                Exponent: 65537 (0x10001)
        X509v3 extensions:
            X509v3 Key Usage: 
                Digital Signature, Key Encipherment
            X509v3 Basic Constraints: 
                CA:FALSE
            Netscape Cert Type: 
                SSL Server
            Netscape Comment: 
                OpenSSL Generated Server Certificate
            X509v3 Subject Key Identifier: 
                9A:4E:76:E2:8F:52:4A:C4:54:CC:53:B5:54:23:4B:EE:BD:1D:70:3F
            X509v3 Authority Key Identifier: 
                keyid:F4:A7:C0:CC:91:46:AF:64:F3:91:F2:27:F8:C8:B2:6F:8A:87:32:73
                DirName:/C=DE/ST=Hessen/O=privacyidea/CN=CA001
                serial:FB:C8:EB:AC:83:CD:12:07

            X509v3 Extended Key Usage: 
                TLS Web Server Authentication
    Signature Algorithm: sha256WithRSAEncryption
         c0:98:8a:c4:bc:f6:84:6a:44:ec:c6:0d:57:32:d4:02:a6:d5:
         f8:af:44:72:4a:bf:95:fb:bd:d6:ae:77:43:bd:dc:a2:2b:17:
         1c:26:6c:56:9e:a3:80:8c:dd:9d:c8:57:86:ee:f6:56:9b:29:
         aa:b5:35:11:ba:53:af:0d:9b:fc:36:d5:f6:4d:97:ae:27:c7:
         45:dc:9c:0d:bb:1b:af:80:ba:32:77:19:c1:66:0d:56:61:e6:
         3e:22:5d:3a:57:bc:86:47:19:f2:cc:af:86:ef:11:cb:bf:c6:
         a5:9a:17:4f:9c:78:f0:f8:97:6f:66:61:9a:6a:0b:db:12:0a:
         65:60:64:db:de:09:4d:9f:2d:c9:f6:5a:11:b9:47:c1:04:d3:
         24:00:74:29:e9:3d:56:4a:60:b9:ca:e3:25:e3:92:5b:50:1c:
         fe:44:af:54:54:cd:42:85:fd:bb:38:6e:79:71:b1:57:43:a9:
         ad:c0:8c:c2:ab:45:f5:b2:03:6c:69:42:36:7b:77:62:5c:a9:
         89:6e:de:da:e3:80:01:bb:54:fb:ce:50:fa:60:c7:51:e1:bd:
         f3:33:39:03:42:f4:f6:6a:3a:a8:4b:20:cc:aa:e4:b5:4b:dc:
         37:4a:d9:e3:61:bd:e9:5e:58:13:4a:ca:de:d4:12:86:b6:aa:
         81:a8:01:8c
-----BEGIN CERTIFICATE-----
MIIEIjCCAwqgAwIBAgIEEAAA1jANBgkqhkiG9w0BAQsFADBEMQswCQYDVQQGEwJE
RTEPMA0GA1UECAwGSGVzc2VuMRQwEgYDVQQKDAtwcml2YWN5aWRlYTEOMAwGA1UE
AwwFQ0EwMDEwHhcNMTcwOTA1MTExOTM5WhcNMTgwOTA1MTExOTM5WjBQMQ8wDQYD
VQQLDAZyZWFsbTExEjAQBgNVBAMMCWNvcm5lbGl1czEpMCcGCSqGSIb3DQEJARYa
dXNlckBsb2NhbGhvc3QubG9jYWxkb21haW4wggEiMA0GCSqGSIb3DQEBAQUAA4IB
DwAwggEKAoIBAQCpoZ1Dx2R+Pdn/XjtiPxZL4EVeXVnSD/XQy1QgUzp8ol14SCOf
jx2/9pbnYINMWJl/EZNiF9oqqPIbsDpo493ea7SDFUPWEmLfAoVnTQAjM4o+VZK4
IDqmtwLaEr58oNTk0+FFZ9Nsz+YGx6dmWlTofJodJGP5bnfmXcNKICFkCbc1LsPD
Ni4N8Hiy5ZcOt3MFx7Nk74lKGBzO1+jjrhBchzwz4wsyTGgAoHKxvaDHduwt8FHA
R4bKuatM9o9wtKrXxZcbEpAM3LPjmnf03VYU9k9OtSCSOakIY/vB0S8eOA8Tp2U3
II+Znqt8CR0UrL3EKaQNqueCZ23bfwMFKaw9AgMBAAGjggEOMIIBCjALBgNVHQ8E
BAMCBaAwCQYDVR0TBAIwADARBglghkgBhvhCAQEEBAMCBkAwMwYJYIZIAYb4QgEN
BCYWJE9wZW5TU0wgR2VuZXJhdGVkIFNlcnZlciBDZXJ0aWZpY2F0ZTAdBgNVHQ4E
FgQUmk524o9SSsRUzFO1VCNL7r0dcD8wdAYDVR0jBG0wa4AU9KfAzJFGr2TzkfIn
+Miyb4qHMnOhSKRGMEQxCzAJBgNVBAYTAkRFMQ8wDQYDVQQIDAZIZXNzZW4xFDAS
BgNVBAoMC3ByaXZhY3lpZGVhMQ4wDAYDVQQDDAVDQTAwMYIJAPvI66yDzRIHMBMG
A1UdJQQMMAoGCCsGAQUFBwMBMA0GCSqGSIb3DQEBCwUAA4IBAQDAmIrEvPaEakTs
xg1XMtQCptX4r0RySr+V+73WrndDvdyiKxccJmxWnqOAjN2dyFeG7vZWmymqtTUR
ulOvDZv8NtX2TZeuJ8dF3JwNuxuvgLoydxnBZg1WYeY+Il06V7yGRxnyzK+G7xHL
v8almhdPnHjw+JdvZmGaagvbEgplYGTb3glNny3J9loRuUfBBNMkAHQp6T1WSmC5
yuMl45JbUBz+RK9UVM1Chf27OG55cbFXQ6mtwIzCq0X1sgNsaUI2e3diXKmJbt7a
44ABu1T7zlD6YMdR4b3zMzkDQvT2ajqoSyDMquS1S9w3StnjYb3pXlgTSsre1BKG
tqqBqAGM
-----END CERTIFICATE-----
