Certificate:
    Data:
        Version: 3 (0x2)
        Serial Number: 268435664 (0x100000d0)
    Signature Algorithm: sha256WithRSAEncryption
        Issuer: C=DE, ST=Hessen, O=privacyidea, CN=CA001
        Validity
            Not Before: Sep  5 11:14:06 2017 GMT
            Not After : Sep  5 11:14:06 2018 GMT
        Subject: C=DE, ST=Hessen, O=privacyidea, CN=requester.localdomain
        Subject Public Key Info:
            Public Key Algorithm: rsaEncryption
                Public-Key: (2048 bit)
                Modulus:
                    00:cd:be:14:4f:fa:ce:01:3f:42:22:1b:1d:9c:af:
                    dd:92:d2:7f:db:6c:b7:3e:39:43:43:6b:13:03:f1:
                    05:f4:07:74:bc:76:69:28:0b:af:19:8e:d7:fc:e3:
                    cd:c6:58:f2:ca:7f:08:6d:53:fc:07:02:44:24:c6:
                    b4:34:4c:8c:04:fe:33:0e:40:e2:20:ba:02:73:5a:
                    f7:f5:4f:63:6e:cc:c6:b6:df:54:1d:37:39:7d:51:
                    36:26:5f:bd:dc:3f:a8:8b:6b:a2:ae:b6:9d:d6:21:
                    e7:df:41:b8:7a:28:2a:68:48:ca:a8:2d:ed:e1:e9:
                    46:5e:5a:72:6d:b4:84:38:87:91:fd:94:11:0b:28:
                    84:c6:c2:2f:2a:fb:01:f9:36:7a:09:75:d1:33:88:
                    3c:73:41:5b:c8:bf:94:89:70:a1:f0:c0:b9:2e:50:
                    53:1e:b1:17:64:69:f4:2d:81:e0:a9:0d:0e:32:e9:
                    ba:55:8a:85:f1:1b:6f:49:79:b4:7f:88:c3:0d:3e:
                    54:88:9b:3d:1f:38:8c:04:f3:ee:6a:63:2b:f5:c6:
                    db:b4:83:aa:c4:78:41:3a:7d:4b:e1:c8:3e:71:ca:
                    1b:61:59:ea:c6:c4:ca:32:5e:c9:e9:bf:12:29:e6:
                    c6:c3:63:fe:a0:55:da:7a:f1:60:98:4d:26:ed:fa:
                    70:2d
                Exponent: 65537 (0x10001)
        X509v3 extensions:
            X509v3 Key Usage: 
                Digital Signature, Key Encipherment
            X509v3 Basic Constraints: 
                CA:FALSE
            Netscape Cert Type: 
                SSL Server
            Netscape Comment: 
                OpenSSL Generated Server Certificate
            X509v3 Subject Key Identifier: 
                53:3F:ED:5D:09:07:B3:65:7B:AB:45:C9:24:5B:09:77:80:0A:96:ED
            X509v3 Authority Key Identifier: 
                keyid:F4:A7:C0:CC:91:46:AF:64:F3:91:F2:27:F8:C8:B2:6F:8A:87:32:73
                DirName:/C=DE/ST=Hessen/O=privacyidea/CN=CA001
                serial:FB:C8:EB:AC:83:CD:12:07

            X509v3 Extended Key Usage: 
                TLS Web Server Authentication
    Signature Algorithm: sha256WithRSAEncryption
         30:34:ca:07:68:f4:7a:dd:6d:da:be:b8:12:81:e7:22:a7:d9:
         4a:cb:e9:60:73:0c:57:e6:43:ca:08:d5:16:d5:54:ce:eb:e3:
         08:8f:49:ad:c6:27:e5:2b:c3:07:8f:3a:4f:e8:4b:b1:a8:cc:
         94:9b:75:b9:f1:03:cf:54:4d:f2:3e:79:c5:0a:e7:7f:ff:36:
         9a:70:a4:4f:d2:42:75:f3:22:ad:7b:32:49:d9:d9:8f:69:2b:
         a7:d1:fc:fb:2f:95:d1:5e:fa:af:12:87:7e:62:00:7a:9f:94:
         21:45:3e:2c:36:2e:2b:6e:3a:9d:6f:06:e3:c3:0c:82:92:8b:
         7b:53:02:72:5e:b4:3f:7e:3a:62:6b:57:d6:a0:ec:85:a5:f3:
         1b:88:3d:48:95:54:71:d0:89:8d:39:6c:b9:46:b8:31:b0:8f:
         72:ba:91:32:2d:90:d5:9f:d2:df:f7:75:79:9d:77:0e:09:57:
         be:8f:25:65:a8:22:ee:bb:8d:3c:55:a5:df:f1:86:f5:a7:15:
         a1:da:f6:0c:d7:79:4f:e2:8d:58:9e:d9:10:7e:8b:0e:c8:43:
         2f:dc:01:e6:48:c0:ce:dd:85:b8:bb:36:ac:7b:9a:1a:ec:fd:
         7d:3a:03:91:49:b3:e1:c8:f2:20:a1:0b:20:cc:9a:42:45:de:
         ab:2f:db:94
-----BEGIN CERTIFICATE-----
MIIEJjCCAw6gAwIBAgIEEAAA0DANBgkqhkiG9w0BAQsFADBEMQswCQYDVQQGEwJE
RTEPMA0GA1UECAwGSGVzc2VuMRQwEgYDVQQKDAtwcml2YWN5aWRlYTEOMAwGA1UE
AwwFQ0EwMDEwHhcNMTcwOTA1MTExNDA2WhcNMTgwOTA1MTExNDA2WjBUMQswCQYD
VQQGEwJERTEPMA0GA1UECAwGSGVzc2VuMRQwEgYDVQQKDAtwcml2YWN5aWRlYTEe
MBwGA1UEAwwVcmVxdWVzdGVyLmxvY2FsZG9tYWluMIIBIjANBgkqhkiG9w0BAQEF
AAOCAQ8AMIIBCgKCAQEAzb4UT/rOAT9CIhsdnK/dktJ/22y3PjlDQ2sTA/EF9Ad0
vHZpKAuvGY7X/OPNxljyyn8IbVP8BwJEJMa0NEyMBP4zDkDiILoCc1r39U9jbszG
tt9UHTc5fVE2Jl+93D+oi2uirrad1iHn30G4eigqaEjKqC3t4elGXlpybbSEOIeR
/ZQRCyiExsIvKvsB+TZ6CXXRM4g8c0FbyL+UiXCh8MC5LlBTHrEXZGn0LYHgqQ0O
Mum6VYqF8RtvSXm0f4jDDT5UiJs9HziMBPPuamMr9cbbtIOqxHhBOn1L4cg+ccob
YVnqxsTKMl7J6b8SKebGw2P+oFXaevFgmE0m7fpwLQIDAQABo4IBDjCCAQowCwYD
VR0PBAQDAgWgMAkGA1UdEwQCMAAwEQYJYIZIAYb4QgEBBAQDAgZAMDMGCWCGSAGG
+EIBDQQmFiRPcGVuU1NMIEdlbmVyYXRlZCBTZXJ2ZXIgQ2VydGlmaWNhdGUwHQYD
VR0OBBYEFFM/7V0JB7Nle6tFySRbCXeACpbtMHQGA1UdIwRtMGuAFPSnwMyRRq9k
85HyJ/jIsm+KhzJzoUikRjBEMQswCQYDVQQGEwJERTEPMA0GA1UECAwGSGVzc2Vu
MRQwEgYDVQQKDAtwcml2YWN5aWRlYTEOMAwGA1UEAwwFQ0EwMDGCCQD7yOusg80S
BzATBgNVHSUEDDAKBggrBgEFBQcDATANBgkqhkiG9w0BAQsFAAOCAQEAMDTKB2j0
et1t2r64EoHnIqfZSsvpYHMMV+ZDygjVFtVUzuvjCI9JrcYn5SvDB486T+hLsajM
lJt1ufEDz1RN8j55xQrnf/82mnCkT9JCdfMirXsySdnZj2krp9H8+y+V0V76rxKH
fmIAep+UIUU+LDYuK246nW8G48MMgpKLe1MCcl60P346YmtX1qDshaXzG4g9SJVU
cdCJjTlsuUa4MbCPcrqRMi2Q1Z/S3/d1eZ13DglXvo8lZagi7ruNPFWl3/GG9acV
odr2DNd5T+KNWJ7ZEH6LDshDL9wB5kjAzt2FuLs2rHuaGuz9fToDkUmz4cjyIKEL
IMyaQkXeqy/blA==
-----END CERTIFICATE-----
