Certificate:
    Data:
        Version: 3 (0x2)
        Serial Number: 268435668 (0x100000d4)
    Signature Algorithm: sha256WithRSAEncryption
        Issuer: C=DE, ST=Hessen, O=privacyidea, CN=CA001
        Validity
            Not Before: Sep  5 11:16:01 2017 GMT
            Not After : Sep 25 11:16:01 2019 GMT
        Subject: CN=Steve Test/emailAddress=steve@openssl.org
        Subject Public Key Info:
            Public Key Algorithm: rsaEncryption
                Public-Key: (2048 bit)
                Modulus:
                    00:d2:81:89:20:51:48:0f:73:f4:11:32:24:d5:1f:
                    1c:fd:5c:f5:b6:e6:c5:f0:52:81:dc:d2:af:66:4a:
                    7c:93:31:61:5c:af:d1:6d:06:70:03:60:7c:72:0c:
                    88:dd:49:cd:9e:02:6c:d2:5a:d7:53:0f:f3:da:be:
                    69:64:b5:0f:0c:00:e3:b3:50:47:a3:b3:9b:ba:13:
                    50:d6:58:5a:4b:ab:39:e0:11:ca:0a:27:67:03:78:
                    22:66:6d:92:1e:1b:5c:49:ae:e6:6b:d1:8e:3b:9d:
                    06:d3:c6:ac:4d:53:43:10:ab:e8:96:c1:87:82:97:
                    99:8f:20:d3:99:12:37:31:84:e1:8a:ff:29:03:5f:
                    22:90:3e:7f:9b:e0:20:c1:ad:dc:ae:4c:39:1a:31:
                    96:17:02:8c:b2:d9:b4:0d:20:12:9b:7d:86:54:fd:
                    33:fd:c1:2a:62:46:f8:60:96:cf:6e:01:6f:22:df:
                    13:47:e7:97:ec:05:72:23:a3:62:f8:fa:ef:ac:9c:
                    72:f0:37:cb:2f:37:cf:90:a8:27:51:86:c6:d7:78:
                    08:8f:7e:25:a2:15:70:a2:fb:1c:b6:15:5e:a0:97:
                    8b:81:4c:09:28:8a:27:3b:94:bc:71:db:5b:71:37:
                    9a:2b:16:e0:6f:b5:c9:f5:4b:4f:20:ba:65:cf:af:
                    ad:ad
                Exponent: 65537 (0x10001)
        X509v3 extensions:
            X509v3 Key Usage: 
                Digital Signature, Key Encipherment
            X509v3 Basic Constraints: 
                CA:FALSE
            Netscape Cert Type: 
                SSL Server
            Netscape Comment: 
                OpenSSL Generated Server Certificate
            X509v3 Subject Key Identifier: 
                E5:25:6D:3E:AF:0D:DD:3F:4C:F2:45:19:39:D5:14:DB:7E:9C:C0:AD
            X509v3 Authority Key Identifier: 
                keyid:F4:A7:C0:CC:91:46:AF:64:F3:91:F2:27:F8:C8:B2:6F:8A:87:32:73
                DirName:/C=DE/ST=Hessen/O=privacyidea/CN=CA001
                serial:FB:C8:EB:AC:83:CD:12:07

            X509v3 Extended Key Usage: 
                TLS Web Server Authentication
    Signature Algorithm: sha256WithRSAEncryption
         81:b7:37:05:88:0d:09:7b:80:16:35:90:25:45:95:c1:32:51:
         67:39:8d:ba:6e:c7:a6:6e:d1:d1:1c:de:e2:2b:a3:01:c2:eb:
         af:9d:96:a7:b1:cf:0f:84:4a:48:f7:4c:a9:68:59:2a:77:bb:
         46:9f:a4:e7:56:d2:0e:a9:a6:96:44:9f:8c:e7:61:3c:ab:49:
         0a:ba:50:02:ac:a0:0d:c4:9a:aa:fc:ff:0c:b7:ea:d8:35:0f:
         5e:93:1a:b1:72:9d:51:62:bb:66:ca:30:f9:fc:59:2e:d4:64:
         07:32:ed:f0:2b:40:0e:dc:e2:3a:7b:17:bc:06:7f:98:28:e7:
         94:c2:56:34:9a:25:92:4d:3b:53:f5:f6:c7:89:cf:75:56:47:
         c2:2e:36:2f:1e:75:ef:4d:63:6e:89:4f:bd:50:05:b5:cb:75:
         01:2d:53:66:0f:00:65:bd:eb:b2:7a:62:5e:ed:42:82:57:41:
         43:44:67:24:64:ec:23:11:c0:58:e5:9e:84:f4:90:86:49:d6:
         38:87:03:c0:9b:b1:ac:17:92:4e:a1:ca:de:55:e9:61:20:be:
         34:c4:cd:c4:7d:cc:e7:d0:e6:54:77:15:da:67:29:94:3c:24:
         42:1b:b0:c5:5f:69:fa:74:92:91:e3:bf:c7:21:3a:74:ee:6f:
         f4:a6:c4:be
-----BEGIN CERTIFICATE-----
MIIECTCCAvGgAwIBAgIEEAAA1DANBgkqhkiG9w0BAQsFADBEMQswCQYDVQQGEwJE
RTEPMA0GA1UECAwGSGVzc2VuMRQwEgYDVQQKDAtwcml2YWN5aWRlYTEOMAwGA1UE
AwwFQ0EwMDEwHhcNMTcwOTA1MTExNjAxWhcNMTkwOTI1MTExNjAxWjA3MRMwEQYD
VQQDDApTdGV2ZSBUZXN0MSAwHgYJKoZIhvcNAQkBFhFzdGV2ZUBvcGVuc3NsLm9y
ZzCCASIwDQYJKoZIhvcNAQEBBQADggEPADCCAQoCggEBANKBiSBRSA9z9BEyJNUf
HP1c9bbmxfBSgdzSr2ZKfJMxYVyv0W0GcANgfHIMiN1JzZ4CbNJa11MP89q+aWS1
DwwA47NQR6Ozm7oTUNZYWkurOeARygonZwN4ImZtkh4bXEmu5mvRjjudBtPGrE1T
QxCr6JbBh4KXmY8g05kSNzGE4Yr/KQNfIpA+f5vgIMGt3K5MORoxlhcCjLLZtA0g
Ept9hlT9M/3BKmJG+GCWz24BbyLfE0fnl+wFciOjYvj676yccvA3yy83z5CoJ1GG
xtd4CI9+JaIVcKL7HLYVXqCXi4FMCSiKJzuUvHHbW3E3misW4G+1yfVLTyC6Zc+v
ra0CAwEAAaOCAQ4wggEKMAsGA1UdDwQEAwIFoDAJBgNVHRMEAjAAMBEGCWCGSAGG
+EIBAQQEAwIGQDAzBglghkgBhvhCAQ0EJhYkT3BlblNTTCBHZW5lcmF0ZWQgU2Vy
dmVyIENlcnRpZmljYXRlMB0GA1UdDgQWBBTlJW0+rw3dP0zyRRk51RTbfpzArTB0
BgNVHSMEbTBrgBT0p8DMkUavZPOR8if4yLJviocyc6FIpEYwRDELMAkGA1UEBhMC
REUxDzANBgNVBAgMBkhlc3NlbjEUMBIGA1UECgwLcHJpdmFjeWlkZWExDjAMBgNV
BAMMBUNBMDAxggkA+8jrrIPNEgcwEwYDVR0lBAwwCgYIKwYBBQUHAwEwDQYJKoZI
hvcNAQELBQADggEBAIG3NwWIDQl7gBY1kCVFlcEyUWc5jbpux6Zu0dEc3uIrowHC
66+dlqexzw+ESkj3TKloWSp3u0afpOdW0g6pppZEn4znYTyrSQq6UAKsoA3Emqr8
/wy36tg1D16TGrFynVFiu2bKMPn8WS7UZAcy7fArQA7c4jp7F7wGf5go55TCVjSa
JZJNO1P19seJz3VWR8IuNi8ede9NY26JT71QBbXLdQEtU2YPAGW967J6Yl7tQoJX
QUNEZyRk7CMRwFjlnoT0kIZJ1jiHA8CbsawXkk6hyt5V6WEgvjTEzcR9zOfQ5lR3
FdpnKZQ8JEIbsMVfafp0kpHjv8chOnTub/SmxL4=
-----END CERTIFICATE-----
