Certificate:
    Data:
        Version: 3 (0x2)
        Serial Number: 268435671 (0x100000d7)
    Signature Algorithm: sha256WithRSAEncryption
        Issuer: C=DE, ST=Hessen, O=privacyidea, CN=CA001
        Validity
            Not Before: Sep  5 11:27:53 2017 GMT
            Not After : Sep  5 11:27:53 2018 GMT
        Subject: CN=selfservice,CN=user,O=realm1/emailAddress=meine
        Subject Public Key Info:
            Public Key Algorithm: rsaEncryption
                Public-Key: (2048 bit)
                Modulus:
                    00:cf:3c:d4:33:0e:12:c4:e6:da:cd:b6:56:a1:1c:
                    26:bb:26:1c:8a:4a:73:a8:58:8a:b6:1e:b3:8b:99:
                    d2:1d:07:c2:92:89:79:c0:69:d8:c8:df:28:61:98:
                    1e:b3:fe:ae:2b:bd:78:a9:f7:6e:47:dc:a3:a0:16:
                    8c:85:02:c1:4e:92:fd:72:6e:f0:c8:03:29:9b:b8:
                    00:6e:c0:83:95:c8:34:20:36:9c:b3:e5:e4:e6:76:
                    73:a3:1a:ad:40:96:e0:53:54:00:ec:76:79:9a:c6:
                    0d:7e:b6:bd:29:ec:83:f3:cb:89:a4:cb:6c:00:ba:
                    0c:c5:78:0f:ff:69:b8:94:f4:04:70:43:3f:d8:9e:
                    d7:a7:fb:5d:ce:75:8e:da:e7:c4:07:b1:9d:de:6f:
                    88:4b:b6:4d:9a:cf:f9:bc:fa:9f:cd:32:6d:f6:3a:
                    0b:0d:23:42:78:ec:97:42:bf:0e:4d:60:56:e1:d3:
                    02:f2:19:cb:84:57:90:e5:70:a1:a2:83:35:86:e2:
                    da:86:9f:f9:8a:c4:79:b3:52:28:da:cb:bb:34:ca:
                    d3:da:91:4a:cf:8d:76:a2:b2:6b:9b:f9:96:fd:09:
                    2a:da:11:23:4d:f0:cb:d6:b2:b1:0e:12:6c:9a:19:
                    65:98:87:ca:e4:ee:24:ce:44:ac:90:8f:9d:1b:c5:
                    2a:9d
                Exponent: 65537 (0x10001)
        X509v3 extensions:
            X509v3 Key Usage: 
                Digital Signature, Key Encipherment
            X509v3 Basic Constraints: 
                CA:FALSE
            Netscape Cert Type: 
                SSL Server
            Netscape Comment: 
                OpenSSL Generated Server Certificate
            X509v3 Subject Key Identifier: 
                4D:07:90:AD:FF:1D:0D:E7:1A:DD:D6:2E:FA:BA:34:CB:AA:1F:24:C6
            X509v3 Authority Key Identifier: 
                keyid:F4:A7:C0:CC:91:46:AF:64:F3:91:F2:27:F8:C8:B2:6F:8A:87:32:73
                DirName:/C=DE/ST=Hessen/O=privacyidea/CN=CA001
                serial:FB:C8:EB:AC:83:CD:12:07

            X509v3 Extended Key Usage: 
                TLS Web Server Authentication
    Signature Algorithm: sha256WithRSAEncryption
         9b:c1:2a:f8:99:41:82:b9:d1:37:67:62:e6:8f:5b:36:af:13:
         04:a1:15:32:cd:2f:26:7f:1f:d9:4f:5f:1d:dc:69:62:1e:00:
         54:e1:23:41:31:90:6f:38:ea:de:23:11:cc:83:de:0c:74:db:
         b7:43:7a:e8:a9:aa:a3:ce:5b:ca:08:4f:16:ed:8b:41:57:2a:
         b5:08:db:8a:0f:51:7e:87:e6:bf:ad:43:a3:39:8d:62:9b:90:
         79:51:db:df:bd:9a:ef:47:f7:e5:a9:dc:98:9f:45:80:3a:f4:
         44:37:79:ac:41:1b:b0:5b:f8:e9:29:dd:24:1d:5a:6b:bf:57:
         6f:3f:9e:b1:7b:ce:d8:88:f9:16:c7:32:c3:e3:bf:71:e2:2f:
         8c:a1:7a:c4:91:ad:0d:39:66:50:23:0f:b6:82:37:0b:d8:32:
         26:c5:93:9c:30:c6:00:7e:4a:05:a1:10:23:20:9d:eb:da:47:
         52:a0:20:ae:d7:d9:2d:e2:3e:eb:84:b7:25:6a:74:d6:39:d1:
         5d:83:d2:47:bb:87:fc:3a:47:d1:3b:35:bb:9f:62:1f:b4:e0:
         d0:13:28:ea:74:d6:9e:c7:02:0e:e9:3f:78:0d:e6:e9:01:5e:
         b7:6a:fd:19:8f:c0:98:49:da:b1:76:91:c4:bd:e8:33:06:6d:
         c3:3e:f3:fc
-----BEGIN CERTIFICATE-----
MIIEDzCCAvegAwIBAgIEEAAA1zANBgkqhkiG9w0BAQsFADBEMQswCQYDVQQGEwJE
RTEPMA0GA1UECAwGSGVzc2VuMRQwEgYDVQQKDAtwcml2YWN5aWRlYTEOMAwGA1UE
AwwFQ0EwMDEwHhcNMTcwOTA1MTEyNzUzWhcNMTgwOTA1MTEyNzUzWjA9MSUwIwYD
VQQDDBxzZWxmc2VydmljZSxDTj11c2VyLE89cmVhbG0xMRQwEgYJKoZIhvcNAQkB
FgVtZWluZTCCASIwDQYJKoZIhvcNAQEBBQADggEPADCCAQoCggEBAM881DMOEsTm
2s22VqEcJrsmHIpKc6hYirYes4uZ0h0HwpKJecBp2MjfKGGYHrP+riu9eKn3bkfc
o6AWjIUCwU6S/XJu8MgDKZu4AG7Ag5XINCA2nLPl5OZ2c6MarUCW4FNUAOx2eZrG
DX62vSnsg/PLiaTLbAC6DMV4D/9puJT0BHBDP9ie16f7Xc51jtrnxAexnd5viEu2
TZrP+bz6n80ybfY6Cw0jQnjsl0K/Dk1gVuHTAvIZy4RXkOVwoaKDNYbi2oaf+YrE
ebNSKNrLuzTK09qRSs+NdqKya5v5lv0JKtoRI03wy9aysQ4SbJoZZZiHyuTuJM5E
rJCPnRvFKp0CAwEAAaOCAQ4wggEKMAsGA1UdDwQEAwIFoDAJBgNVHRMEAjAAMBEG
CWCGSAGG+EIBAQQEAwIGQDAzBglghkgBhvhCAQ0EJhYkT3BlblNTTCBHZW5lcmF0
ZWQgU2VydmVyIENlcnRpZmljYXRlMB0GA1UdDgQWBBRNB5Ct/x0N5xrd1i76ujTL
qh8kxjB0BgNVHSMEbTBrgBT0p8DMkUavZPOR8if4yLJviocyc6FIpEYwRDELMAkG
A1UEBhMCREUxDzANBgNVBAgMBkhlc3NlbjEUMBIGA1UECgwLcHJpdmFjeWlkZWEx
DjAMBgNVBAMMBUNBMDAxggkA+8jrrIPNEgcwEwYDVR0lBAwwCgYIKwYBBQUHAwEw
DQYJKoZIhvcNAQELBQADggEBAJvBKviZQYK50TdnYuaPWzavEwShFTLNLyZ/H9lP
Xx3caWIeAFThI0ExkG846t4jEcyD3gx027dDeuipqqPOW8oITxbti0FXKrUI24oP
UX6H5r+tQ6M5jWKbkHlR29+9mu9H9+Wp3JifRYA69EQ3eaxBG7Bb+Okp3SQdWmu/
V28/nrF7ztiI+RbHMsPjv3HiL4yhesSRrQ05ZlAjD7aCNwvYMibFk5wwxgB+SgWh
ECMgnevaR1KgIK7X2S3iPuuEtyVqdNY50V2D0ke7h/w6R9E7NbufYh+04NATKOp0
1p7HAg7pP3gN5ukBXrdq/RmPwJhJ2rF2kcS96DMGbcM+8/w=
-----END CERTIFICATE-----
