Certificate:
    Data:
        Version: 3 (0x2)
        Serial Number: 268435666 (0x100000d2)
    Signature Algorithm: sha256WithRSAEncryption
        Issuer: C=DE, ST=Hessen, O=privacyidea, CN=CA001
        Validity
            Not Before: Sep  5 11:16:00 2017 GMT
            Not After : Sep  5 11:16:00 2018 GMT
        Subject: C=DE, ST=Hessen, O=privacyidea, CN=usercert
        Subject Public Key Info:
            Public Key Algorithm: rsaEncryption
                Public-Key: (2048 bit)
                Modulus:
                    00:dc:2f:d1:5f:29:97:d4:7c:c3:53:c8:30:bd:4b:
                    67:70:2c:24:6b:b8:5e:eb:21:7a:48:12:56:7c:81:
                    5c:48:75:b6:68:eb:f6:f2:98:4e:50:51:d1:7f:6c:
                    73:f3:0a:a7:ae:be:48:5e:e5:d6:e1:d9:2a:7c:32:
                    6e:4e:fd:08:f6:5a:54:49:23:73:c3:b9:07:18:d1:
                    ef:b3:ac:f8:8a:dc:94:96:a4:90:3a:8e:74:df:e6:
                    0d:37:1b:bd:5b:b7:25:1a:56:39:da:6f:91:aa:5e:
                    1c:74:f3:f9:7c:14:01:83:12:65:76:c7:bb:fe:36:
                    5b:95:e9:72:65:83:ed:3e:98:30:71:fa:87:dd:a3:
                    36:5a:30:03:2e:26:e0:61:d1:bf:02:3f:b6:06:1f:
                    4a:89:28:1c:5c:a2:ff:4e:be:94:e6:8c:e0:da:82:
                    f1:9d:29:32:48:30:73:b4:04:f6:42:1e:be:f7:e2:
                    32:32:27:3c:9d:89:2f:70:3e:85:9a:6f:5c:c5:09:
                    c0:8c:32:2f:72:22:c9:d2:95:1f:b6:ac:72:60:72:
                    b7:82:4d:6b:ce:5b:e3:00:d0:d2:2f:58:c6:e0:10:
                    e5:51:ca:4d:3b:2e:e6:7e:ab:84:d6:56:f1:93:35:
                    a0:93:64:26:81:75:2f:91:b5:16:06:38:0b:db:cc:
                    2d:07
                Exponent: 65537 (0x10001)
        X509v3 extensions:
            X509v3 Key Usage: 
                Digital Signature, Key Encipherment
            X509v3 Basic Constraints: 
                CA:FALSE
            Netscape Cert Type: 
                SSL Server
            Netscape Comment: 
                OpenSSL Generated Server Certificate
            X509v3 Subject Key Identifier: 
                FC:14:D1:F0:4B:8D:00:90:F2:F5:B8:71:9E:4E:97:C3:92:54:AD:0B
            X509v3 Authority Key Identifier: 
                keyid:F4:A7:C0:CC:91:46:AF:64:F3:91:F2:27:F8:C8:B2:6F:8A:87:32:73
                DirName:/C=DE/ST=Hessen/O=privacyidea/CN=CA001
                serial:FB:C8:EB:AC:83:CD:12:07

            X509v3 Extended Key Usage: 
                TLS Web Server Authentication
    Signature Algorithm: sha256WithRSAEncryption
         3f:16:47:49:71:b7:5a:f3:2c:89:a1:d6:8d:f9:eb:48:a4:6d:
         25:fe:91:16:32:98:cf:f5:b7:b9:8c:a1:58:81:98:53:e1:18:
         6c:ae:e1:68:f4:19:42:dd:13:ee:1d:b1:8d:5d:db:10:c9:0a:
         b0:8e:7d:15:7f:04:7a:a4:1d:7d:28:1e:96:56:71:fe:b4:b2:
         5b:66:c7:4d:c6:fb:1b:92:99:93:ca:53:c6:4b:86:be:af:ee:
         c0:e7:83:b4:89:b7:7e:d2:e1:7f:54:ca:2e:5e:fc:be:e1:f5:
         76:dd:2b:02:0e:ae:04:d8:14:f4:5b:4b:1a:61:a2:83:bd:75:
         f1:ee:55:8d:eb:8c:3b:10:dd:1b:63:98:08:cc:08:09:b5:8d:
         c7:b3:8c:e6:0f:01:5f:35:37:ef:93:e3:93:0f:91:0e:76:70:
         3f:7e:1a:19:36:85:8a:91:4a:86:b8:71:aa:c2:c7:1f:d6:1b:
         ee:18:d0:45:2c:26:34:87:58:fd:86:de:dd:60:22:dc:e0:9d:
         8c:4e:b5:22:50:0f:0b:14:8f:b0:88:50:d6:b3:62:e7:3c:2e:
         a0:06:a3:88:59:95:53:b3:ed:1f:d0:27:e1:d4:5e:ee:63:f6:
         7c:59:8e:50:ae:8c:09:c3:47:0b:0b:64:de:91:39:d6:69:9f:
         87:e8:69:63
-----BEGIN CERTIFICATE-----
MIIEGTCCAwGgAwIBAgIEEAAA0jANBgkqhkiG9w0BAQsFADBEMQswCQYDVQQGEwJE
RTEPMA0GA1UECAwGSGVzc2VuMRQwEgYDVQQKDAtwcml2YWN5aWRlYTEOMAwGA1UE
AwwFQ0EwMDEwHhcNMTcwOTA1MTExNjAwWhcNMTgwOTA1MTExNjAwWjBHMQswCQYD
VQQGEwJERTEPMA0GA1UECAwGSGVzc2VuMRQwEgYDVQQKDAtwcml2YWN5aWRlYTER
MA8GA1UEAwwIdXNlcmNlcnQwggEiMA0GCSqGSIb3DQEBAQUAA4IBDwAwggEKAoIB
AQDcL9FfKZfUfMNTyDC9S2dwLCRruF7rIXpIElZ8gVxIdbZo6/bymE5QUdF/bHPz
Cqeuvkhe5dbh2Sp8Mm5O/Qj2WlRJI3PDuQcY0e+zrPiK3JSWpJA6jnTf5g03G71b
tyUaVjnab5GqXhx08/l8FAGDEmV2x7v+NluV6XJlg+0+mDBx+ofdozZaMAMuJuBh
0b8CP7YGH0qJKBxcov9OvpTmjODagvGdKTJIMHO0BPZCHr734jIyJzydiS9wPoWa
b1zFCcCMMi9yIsnSlR+2rHJgcreCTWvOW+MA0NIvWMbgEOVRyk07LuZ+q4TWVvGT
NaCTZCaBdS+RtRYGOAvbzC0HAgMBAAGjggEOMIIBCjALBgNVHQ8EBAMCBaAwCQYD
VR0TBAIwADARBglghkgBhvhCAQEEBAMCBkAwMwYJYIZIAYb4QgENBCYWJE9wZW5T
U0wgR2VuZXJhdGVkIFNlcnZlciBDZXJ0aWZpY2F0ZTAdBgNVHQ4EFgQU/BTR8EuN
AJDy9bhxnk6Xw5JUrQswdAYDVR0jBG0wa4AU9KfAzJFGr2TzkfIn+Miyb4qHMnOh
SKRGMEQxCzAJBgNVBAYTAkRFMQ8wDQYDVQQIDAZIZXNzZW4xFDASBgNVBAoMC3By
aXZhY3lpZGVhMQ4wDAYDVQQDDAVDQTAwMYIJAPvI66yDzRIHMBMGA1UdJQQMMAoG
CCsGAQUFBwMBMA0GCSqGSIb3DQEBCwUAA4IBAQA/FkdJcbda8yyJodaN+etIpG0l
/pEWMpjP9be5jKFYgZhT4RhsruFo9BlC3RPuHbGNXdsQyQqwjn0VfwR6pB19KB6W
VnH+tLJbZsdNxvsbkpmTylPGS4a+r+7A54O0ibd+0uF/VMouXvy+4fV23SsCDq4E
2BT0W0saYaKDvXXx7lWN64w7EN0bY5gIzAgJtY3Hs4zmDwFfNTfvk+OTD5EOdnA/
fhoZNoWKkUqGuHGqwscf1hvuGNBFLCY0h1j9ht7dYCLc4J2MTrUiUA8LFI+wiFDW
s2LnPC6gBqOIWZVTs+0f0Cfh1F7uY/Z8WY5QrowJw0cLC2TekTnWaZ+H6Glj
-----END CERTIFICATE-----
