Certificate:
    Data:
        Version: 3 (0x2)
        Serial Number: 268435681 (0x100000e1)
    Signature Algorithm: sha256WithRSAEncryption
        Issuer: C=DE, ST=Hessen, O=privacyidea, CN=CA001
        Validity
            Not Before: Apr 27 15:13:08 2017 GMT
            Not After : Apr 27 15:13:08 2018 GMT
        Subject: C=DE, ST=Hessen, O=privacyidea, CN=requester.localdomain
        Subject Public Key Info:
            Public Key Algorithm: rsaEncryption
                Public-Key: (2048 bit)
                Modulus:
                    00:cd:be:14:4f:fa:ce:01:3f:42:22:1b:1d:9c:af:
                    dd:92:d2:7f:db:6c:b7:3e:39:43:43:6b:13:03:f1:
                    05:f4:07:74:bc:76:69:28:0b:af:19:8e:d7:fc:e3:
                    cd:c6:58:f2:ca:7f:08:6d:53:fc:07:02:44:24:c6:
                    b4:34:4c:8c:04:fe:33:0e:40:e2:20:ba:02:73:5a:
                    f7:f5:4f:63:6e:cc:c6:b6:df:54:1d:37:39:7d:51:
                    36:26:5f:bd:dc:3f:a8:8b:6b:a2:ae:b6:9d:d6:21:
                    e7:df:41:b8:7a:28:2a:68:48:ca:a8:2d:ed:e1:e9:
                    46:5e:5a:72:6d:b4:84:38:87:91:fd:94:11:0b:28:
                    84:c6:c2:2f:2a:fb:01:f9:36:7a:09:75:d1:33:88:
                    3c:73:41:5b:c8:bf:94:89:70:a1:f0:c0:b9:2e:50:
                    53:1e:b1:17:64:69:f4:2d:81:e0:a9:0d:0e:32:e9:
                    ba:55:8a:85:f1:1b:6f:49:79:b4:7f:88:c3:0d:3e:
                    54:88:9b:3d:1f:38:8c:04:f3:ee:6a:63:2b:f5:c6:
                    db:b4:83:aa:c4:78:41:3a:7d:4b:e1:c8:3e:71:ca:
                    1b:61:59:ea:c6:c4:ca:32:5e:c9:e9:bf:12:29:e6:
                    c6:c3:63:fe:a0:55:da:7a:f1:60:98:4d:26:ed:fa:
                    70:2d
                Exponent: 65537 (0x10001)
        X509v3 extensions:
            X509v3 Key Usage: 
                Digital Signature, Key Encipherment
            X509v3 Basic Constraints: 
                CA:FALSE
            Netscape Cert Type: 
                SSL Server
            Netscape Comment: 
                OpenSSL Generated Server Certificate
            X509v3 Subject Key Identifier: 
                53:3F:ED:5D:09:07:B3:65:7B:AB:45:C9:24:5B:09:77:80:0A:96:ED
            X509v3 Authority Key Identifier: 
                keyid:F4:A7:C0:CC:91:46:AF:64:F3:91:F2:27:F8:C8:B2:6F:8A:87:32:73
                DirName:/C=DE/ST=Hessen/O=privacyidea/CN=CA001
                serial:FB:C8:EB:AC:83:CD:12:07

            X509v3 Extended Key Usage: 
                TLS Web Server Authentication
    Signature Algorithm: sha256WithRSAEncryption
         8c:e1:ef:24:39:a0:4f:86:a0:13:4f:2c:65:24:57:83:bd:de:
         7f:07:94:d1:d4:cd:79:89:35:91:25:1a:4d:3c:40:27:1a:6d:
         a7:73:f9:d4:92:69:7f:8c:c2:e0:65:66:0a:4e:e6:0f:10:9b:
         09:69:6c:5c:43:d6:48:cd:3d:53:5b:5a:54:64:25:54:48:0b:
         00:1f:79:c6:41:09:09:3c:11:e4:8d:d3:16:1b:30:8a:15:ce:
         89:38:81:64:15:15:5f:09:c9:ec:a3:af:9a:89:52:4c:dd:ec:
         3f:4a:65:ce:a3:c6:0c:90:93:41:8c:11:0c:cd:87:fe:63:01:
         10:ae:c3:9d:8d:cf:c7:ad:b5:6b:60:20:1e:a1:07:f6:f0:0f:
         46:8f:14:bb:a1:c1:a6:25:48:4a:2c:6f:fa:e7:fd:36:27:75:
         d3:c4:cb:b6:23:54:af:65:4d:3f:7d:12:3e:7f:05:5e:d2:91:
         0e:48:98:25:42:c8:63:b1:62:00:d0:17:8b:4e:ba:f2:86:3c:
         df:7f:71:d7:ae:31:30:26:26:8c:93:f3:66:af:db:43:6c:4d:
         81:a8:8a:e9:11:27:57:fa:1c:1d:dd:6d:22:5a:e6:76:00:24:
         31:70:3d:8f:bc:44:35:d7:55:f0:a2:ac:c6:b9:22:ca:66:1c:
         b8:d9:c6:94
-----BEGIN CERTIFICATE-----
MIIEJjCCAw6gAwIBAgIEEAAA4TANBgkqhkiG9w0BAQsFADBEMQswCQYDVQQGEwJE
RTEPMA0GA1UECAwGSGVzc2VuMRQwEgYDVQQKDAtwcml2YWN5aWRlYTEOMAwGA1UE
AwwFQ0EwMDEwHhcNMTcwNDI3MTUxMzA4WhcNMTgwNDI3MTUxMzA4WjBUMQswCQYD
VQQGEwJERTEPMA0GA1UECAwGSGVzc2VuMRQwEgYDVQQKDAtwcml2YWN5aWRlYTEe
MBwGA1UEAwwVcmVxdWVzdGVyLmxvY2FsZG9tYWluMIIBIjANBgkqhkiG9w0BAQEF
AAOCAQ8AMIIBCgKCAQEAzb4UT/rOAT9CIhsdnK/dktJ/22y3PjlDQ2sTA/EF9Ad0
vHZpKAuvGY7X/OPNxljyyn8IbVP8BwJEJMa0NEyMBP4zDkDiILoCc1r39U9jbszG
tt9UHTc5fVE2Jl+93D+oi2uirrad1iHn30G4eigqaEjKqC3t4elGXlpybbSEOIeR
/ZQRCyiExsIvKvsB+TZ6CXXRM4g8c0FbyL+UiXCh8MC5LlBTHrEXZGn0LYHgqQ0O
Mum6VYqF8RtvSXm0f4jDDT5UiJs9HziMBPPuamMr9cbbtIOqxHhBOn1L4cg+ccob
YVnqxsTKMl7J6b8SKebGw2P+oFXaevFgmE0m7fpwLQIDAQABo4IBDjCCAQowCwYD
VR0PBAQDAgWgMAkGA1UdEwQCMAAwEQYJYIZIAYb4QgEBBAQDAgZAMDMGCWCGSAGG
+EIBDQQmFiRPcGVuU1NMIEdlbmVyYXRlZCBTZXJ2ZXIgQ2VydGlmaWNhdGUwHQYD
VR0OBBYEFFM/7V0JB7Nle6tFySRbCXeACpbtMHQGA1UdIwRtMGuAFPSnwMyRRq9k
85HyJ/jIsm+KhzJzoUikRjBEMQswCQYDVQQGEwJERTEPMA0GA1UECAwGSGVzc2Vu
MRQwEgYDVQQKDAtwcml2YWN5aWRlYTEOMAwGA1UEAwwFQ0EwMDGCCQD7yOusg80S
BzATBgNVHSUEDDAKBggrBgEFBQcDATANBgkqhkiG9w0BAQsFAAOCAQEAjOHvJDmg
T4agE08sZSRXg73efweU0dTNeYk1kSUaTTxAJxptp3P51JJpf4zC4GVmCk7mDxCb
CWlsXEPWSM09U1taVGQlVEgLAB95xkEJCTwR5I3TFhswihXOiTiBZBUVXwnJ7KOv
molSTN3sP0plzqPGDJCTQYwRDM2H/mMBEK7DnY3Px621a2AgHqEH9vAPRo8Uu6HB
piVISixv+uf9Nid108TLtiNUr2VNP30SPn8FXtKRDkiYJULIY7FiANAXi0668oY8
339x164xMCYmjJPzZq/bQ2xNgaiK6REnV/ocHd1tIlrmdgAkMXA9j7xENddV8KKs
xrkiymYcuNnGlA==
-----END CERTIFICATE-----
