Certificate:
    Data:
        Version: 3 (0x2)
        Serial Number: 268435684 (0x100000e4)
    Signature Algorithm: sha256WithRSAEncryption
        Issuer: C=DE, ST=Hessen, O=privacyidea, CN=CA001
        Validity
            Not Before: Apr 27 15:14:46 2017 GMT
            Not After : Apr 27 15:14:46 2018 GMT
        Subject: CN=Steve Test/emailAddress=steve@openssl.org
        Subject Public Key Info:
            Public Key Algorithm: rsaEncryption
                Public-Key: (2048 bit)
                Modulus:
                    00:d2:81:89:20:51:48:0f:73:f4:11:32:24:d5:1f:
                    1c:fd:5c:f5:b6:e6:c5:f0:52:81:dc:d2:af:66:4a:
                    7c:93:31:61:5c:af:d1:6d:06:70:03:60:7c:72:0c:
                    88:dd:49:cd:9e:02:6c:d2:5a:d7:53:0f:f3:da:be:
                    69:64:b5:0f:0c:00:e3:b3:50:47:a3:b3:9b:ba:13:
                    50:d6:58:5a:4b:ab:39:e0:11:ca:0a:27:67:03:78:
                    22:66:6d:92:1e:1b:5c:49:ae:e6:6b:d1:8e:3b:9d:
                    06:d3:c6:ac:4d:53:43:10:ab:e8:96:c1:87:82:97:
                    99:8f:20:d3:99:12:37:31:84:e1:8a:ff:29:03:5f:
                    22:90:3e:7f:9b:e0:20:c1:ad:dc:ae:4c:39:1a:31:
                    96:17:02:8c:b2:d9:b4:0d:20:12:9b:7d:86:54:fd:
                    33:fd:c1:2a:62:46:f8:60:96:cf:6e:01:6f:22:df:
                    13:47:e7:97:ec:05:72:23:a3:62:f8:fa:ef:ac:9c:
                    72:f0:37:cb:2f:37:cf:90:a8:27:51:86:c6:d7:78:
                    08:8f:7e:25:a2:15:70:a2:fb:1c:b6:15:5e:a0:97:
                    8b:81:4c:09:28:8a:27:3b:94:bc:71:db:5b:71:37:
                    9a:2b:16:e0:6f:b5:c9:f5:4b:4f:20:ba:65:cf:af:
                    ad:ad
                Exponent: 65537 (0x10001)
        X509v3 extensions:
            X509v3 Key Usage: 
                Digital Signature, Key Encipherment
            X509v3 Basic Constraints: 
                CA:FALSE
            Netscape Cert Type: 
                SSL Server
            Netscape Comment: 
                OpenSSL Generated Server Certificate
            X509v3 Subject Key Identifier: 
                E5:25:6D:3E:AF:0D:DD:3F:4C:F2:45:19:39:D5:14:DB:7E:9C:C0:AD
            X509v3 Authority Key Identifier: 
                keyid:F4:A7:C0:CC:91:46:AF:64:F3:91:F2:27:F8:C8:B2:6F:8A:87:32:73
                DirName:/C=DE/ST=Hessen/O=privacyidea/CN=CA001
                serial:FB:C8:EB:AC:83:CD:12:07

            X509v3 Extended Key Usage: 
                TLS Web Server Authentication
    Signature Algorithm: sha256WithRSAEncryption
         35:26:ee:03:03:c6:3b:f8:cc:9b:9e:a7:58:6b:c4:b8:e3:2f:
         5d:e3:5a:44:54:30:4c:eb:44:d7:55:d6:c9:34:4e:0c:80:e3:
         52:28:8c:2f:c7:2d:59:09:38:35:1f:3d:8e:0f:bd:e8:4d:a4:
         a3:5e:e2:6b:09:3c:c6:34:fd:a2:32:7b:8a:df:6f:ae:65:96:
         48:c9:c7:11:48:f5:b3:8c:b8:12:e0:f5:53:5e:1b:fe:93:07:
         3e:9a:ad:98:fc:93:cf:eb:37:0b:6e:53:e1:f1:ed:6d:c8:bd:
         c9:45:05:4e:0d:10:c3:ff:80:c6:b5:eb:e8:82:ba:e4:28:b8:
         16:b1:6a:28:7e:ab:a6:8a:91:f4:37:1b:5e:a6:e9:8a:be:96:
         a5:c5:8a:5a:cf:6b:6d:48:03:c9:64:09:90:c2:79:7f:4e:85:
         6b:0c:b9:64:72:08:23:69:4b:0e:4f:35:c3:9f:55:e9:7e:9c:
         de:4f:fa:3c:0b:2c:88:e8:05:1e:32:b3:76:da:02:b2:e0:82:
         52:90:5e:8a:d5:9c:8a:5d:2f:d5:45:ed:f4:cc:76:bc:78:25:
         ea:68:73:87:b0:75:8a:b2:a6:b9:af:68:6d:7d:d2:c6:90:56:
         08:a5:47:68:11:2e:b0:84:43:b4:78:12:84:4e:6d:04:e0:e5:
         9f:c6:1b:fd
-----BEGIN CERTIFICATE-----
MIIECTCCAvGgAwIBAgIEEAAA5DANBgkqhkiG9w0BAQsFADBEMQswCQYDVQQGEwJE
RTEPMA0GA1UECAwGSGVzc2VuMRQwEgYDVQQKDAtwcml2YWN5aWRlYTEOMAwGA1UE
AwwFQ0EwMDEwHhcNMTcwNDI3MTUxNDQ2WhcNMTgwNDI3MTUxNDQ2WjA3MRMwEQYD
VQQDDApTdGV2ZSBUZXN0MSAwHgYJKoZIhvcNAQkBFhFzdGV2ZUBvcGVuc3NsLm9y
ZzCCASIwDQYJKoZIhvcNAQEBBQADggEPADCCAQoCggEBANKBiSBRSA9z9BEyJNUf
HP1c9bbmxfBSgdzSr2ZKfJMxYVyv0W0GcANgfHIMiN1JzZ4CbNJa11MP89q+aWS1
DwwA47NQR6Ozm7oTUNZYWkurOeARygonZwN4ImZtkh4bXEmu5mvRjjudBtPGrE1T
QxCr6JbBh4KXmY8g05kSNzGE4Yr/KQNfIpA+f5vgIMGt3K5MORoxlhcCjLLZtA0g
Ept9hlT9M/3BKmJG+GCWz24BbyLfE0fnl+wFciOjYvj676yccvA3yy83z5CoJ1GG
xtd4CI9+JaIVcKL7HLYVXqCXi4FMCSiKJzuUvHHbW3E3misW4G+1yfVLTyC6Zc+v
ra0CAwEAAaOCAQ4wggEKMAsGA1UdDwQEAwIFoDAJBgNVHRMEAjAAMBEGCWCGSAGG
+EIBAQQEAwIGQDAzBglghkgBhvhCAQ0EJhYkT3BlblNTTCBHZW5lcmF0ZWQgU2Vy
dmVyIENlcnRpZmljYXRlMB0GA1UdDgQWBBTlJW0+rw3dP0zyRRk51RTbfpzArTB0
BgNVHSMEbTBrgBT0p8DMkUavZPOR8if4yLJviocyc6FIpEYwRDELMAkGA1UEBhMC
REUxDzANBgNVBAgMBkhlc3NlbjEUMBIGA1UECgwLcHJpdmFjeWlkZWExDjAMBgNV
BAMMBUNBMDAxggkA+8jrrIPNEgcwEwYDVR0lBAwwCgYIKwYBBQUHAwEwDQYJKoZI
hvcNAQELBQADggEBADUm7gMDxjv4zJuep1hrxLjjL13jWkRUMEzrRNdV1sk0TgyA
41IojC/HLVkJODUfPY4PvehNpKNe4msJPMY0/aIye4rfb65llkjJxxFI9bOMuBLg
9VNeG/6TBz6arZj8k8/rNwtuU+Hx7W3IvclFBU4NEMP/gMa16+iCuuQouBaxaih+
q6aKkfQ3G16m6Yq+lqXFilrPa21IA8lkCZDCeX9OhWsMuWRyCCNpSw5PNcOfVel+
nN5P+jwLLIjoBR4ys3baArLgglKQXorVnIpdL9VF7fTMdrx4Jepoc4ewdYqyprmv
aG190saQVgilR2gRLrCEQ7R4EoRObQTg5Z/GG/0=
-----END CERTIFICATE-----
