Certificate:
    Data:
        Version: 3 (0x2)
        Serial Number: 268435687 (0x100000e7)
    Signature Algorithm: sha256WithRSAEncryption
        Issuer: C=DE, ST=Hessen, O=privacyidea, CN=CA001
        Validity
            Not Before: Apr 27 15:18:07 2017 GMT
            Not After : Apr 27 15:18:07 2018 GMT
        Subject: OU=realm1, CN=cornelius/emailAddress=user@localhost.localdomain
        Subject Public Key Info:
            Public Key Algorithm: rsaEncryption
                Public-Key: (2048 bit)
                Modulus:
                    00:df:f0:7d:12:8e:df:67:55:12:7d:ac:e5:18:f9:
                    a0:fe:c2:4b:9d:22:e5:56:af:ec:8f:b0:1a:8e:52:
                    8b:e0:99:ce:c0:a4:9c:5a:b8:1d:58:47:8a:c3:af:
                    30:c4:5d:91:9e:5a:8e:db:7a:c9:a3:16:02:e0:09:
                    a6:98:09:94:54:a1:62:4d:52:30:45:75:a2:af:d5:
                    9c:a7:af:70:1b:a7:c9:42:79:42:e9:5e:29:3e:56:
                    fa:92:d5:6e:10:43:0d:72:a1:49:9f:6c:eb:f0:6c:
                    ad:3e:ad:33:d1:1b:18:e5:59:06:06:ab:52:41:88:
                    92:09:f7:a6:71:26:54:ad:2c:be:fc:bb:2d:31:f1:
                    d2:d3:0c:1d:06:47:b1:58:fe:4a:7b:95:29:db:6c:
                    00:75:ed:dc:39:f9:83:a9:82:c4:99:39:53:0d:f5:
                    b7:24:8e:f0:66:59:bc:bb:0b:ba:e6:04:7c:b4:9b:
                    1d:0c:dd:ba:9d:31:9b:62:55:6b:1b:ae:f0:94:ac:
                    a6:a3:59:32:13:06:b4:65:b6:82:ff:01:c4:56:15:
                    cc:8d:e1:fe:bb:5e:b7:df:42:c9:bf:31:81:1e:cc:
                    f6:12:38:d5:5d:71:c9:d6:9e:1b:51:29:a9:f8:52:
                    b6:ec:76:45:96:9c:6f:f3:44:06:e3:26:ef:01:fb:
                    c4:d5
                Exponent: 65537 (0x10001)
        X509v3 extensions:
            X509v3 Key Usage: 
                Digital Signature, Key Encipherment
            X509v3 Basic Constraints: 
                CA:FALSE
            Netscape Cert Type: 
                SSL Server
            Netscape Comment: 
                OpenSSL Generated Server Certificate
            X509v3 Subject Key Identifier: 
                EB:DC:1F:1C:D2:E4:CC:F0:70:74:3F:1F:12:B1:6C:98:2F:83:CF:51
            X509v3 Authority Key Identifier: 
                keyid:F4:A7:C0:CC:91:46:AF:64:F3:91:F2:27:F8:C8:B2:6F:8A:87:32:73
                DirName:/C=DE/ST=Hessen/O=privacyidea/CN=CA001
                serial:FB:C8:EB:AC:83:CD:12:07

            X509v3 Extended Key Usage: 
                TLS Web Server Authentication
    Signature Algorithm: sha256WithRSAEncryption
         0a:a9:68:d5:85:62:1a:52:ad:12:03:2b:13:0a:fc:f2:92:97:
         eb:3a:88:de:a9:6d:47:82:f5:8a:63:aa:72:ab:56:71:b3:b2:
         24:43:f9:3e:f9:a2:7a:17:40:50:f6:94:0e:f1:78:24:b7:dc:
         66:1b:3f:31:52:4d:ff:2c:22:32:7f:68:ca:ac:b5:95:0f:ac:
         5a:c3:cd:91:36:95:50:e8:df:a3:48:e2:b5:33:d8:70:b4:d2:
         00:4d:bb:c0:4d:1b:08:53:68:8a:1a:9c:98:21:84:4c:70:cb:
         b4:80:89:53:2a:9c:55:c4:79:38:e6:08:7a:84:a9:71:5b:7a:
         1a:40:22:d5:e9:0c:7e:56:d8:b6:c2:22:c8:f6:0d:4d:03:30:
         dd:36:f5:8e:8d:62:f2:6d:62:7f:ca:9d:82:e9:4d:90:42:54:
         73:cc:7f:99:84:68:b8:7a:eb:df:61:4e:fa:99:a4:99:61:cb:
         a6:2f:44:55:5d:10:bc:00:2f:6f:59:33:0c:d7:a8:5b:b7:b4:
         d1:2c:7f:7e:b2:1a:36:08:0d:fe:52:58:dc:62:4b:4a:8e:9c:
         f9:f8:f2:f8:4c:0d:a1:09:3f:d8:2b:e2:ac:5a:e7:d2:b1:d8:
         12:13:81:3f:44:3c:ca:7d:b6:fe:df:c2:5f:29:3f:9c:7b:5e:
         b4:02:4c:c2
-----BEGIN CERTIFICATE-----
MIIEIjCCAwqgAwIBAgIEEAAA5zANBgkqhkiG9w0BAQsFADBEMQswCQYDVQQGEwJE
RTEPMA0GA1UECAwGSGVzc2VuMRQwEgYDVQQKDAtwcml2YWN5aWRlYTEOMAwGA1UE
AwwFQ0EwMDEwHhcNMTcwNDI3MTUxODA3WhcNMTgwNDI3MTUxODA3WjBQMQ8wDQYD
VQQLDAZyZWFsbTExEjAQBgNVBAMMCWNvcm5lbGl1czEpMCcGCSqGSIb3DQEJARYa
dXNlckBsb2NhbGhvc3QubG9jYWxkb21haW4wggEiMA0GCSqGSIb3DQEBAQUAA4IB
DwAwggEKAoIBAQDf8H0Sjt9nVRJ9rOUY+aD+wkudIuVWr+yPsBqOUovgmc7ApJxa
uB1YR4rDrzDEXZGeWo7besmjFgLgCaaYCZRUoWJNUjBFdaKv1Zynr3Abp8lCeULp
Xik+VvqS1W4QQw1yoUmfbOvwbK0+rTPRGxjlWQYGq1JBiJIJ96ZxJlStLL78uy0x
8dLTDB0GR7FY/kp7lSnbbAB17dw5+YOpgsSZOVMN9bckjvBmWby7C7rmBHy0mx0M
3bqdMZtiVWsbrvCUrKajWTITBrRltoL/AcRWFcyN4f67XrffQsm/MYEezPYSONVd
ccnWnhtRKan4UrbsdkWWnG/zRAbjJu8B+8TVAgMBAAGjggEOMIIBCjALBgNVHQ8E
BAMCBaAwCQYDVR0TBAIwADARBglghkgBhvhCAQEEBAMCBkAwMwYJYIZIAYb4QgEN
BCYWJE9wZW5TU0wgR2VuZXJhdGVkIFNlcnZlciBDZXJ0aWZpY2F0ZTAdBgNVHQ4E
FgQU69wfHNLkzPBwdD8fErFsmC+Dz1EwdAYDVR0jBG0wa4AU9KfAzJFGr2TzkfIn
+Miyb4qHMnOhSKRGMEQxCzAJBgNVBAYTAkRFMQ8wDQYDVQQIDAZIZXNzZW4xFDAS
BgNVBAoMC3ByaXZhY3lpZGVhMQ4wDAYDVQQDDAVDQTAwMYIJAPvI66yDzRIHMBMG
A1UdJQQMMAoGCCsGAQUFBwMBMA0GCSqGSIb3DQEBCwUAA4IBAQAKqWjVhWIaUq0S
AysTCvzykpfrOojeqW1HgvWKY6pyq1Zxs7IkQ/k++aJ6F0BQ9pQO8Xgkt9xmGz8x
Uk3/LCIyf2jKrLWVD6xaw82RNpVQ6N+jSOK1M9hwtNIATbvATRsIU2iKGpyYIYRM
cMu0gIlTKpxVxHk45gh6hKlxW3oaQCLV6Qx+Vti2wiLI9g1NAzDdNvWOjWLybWJ/
yp2C6U2QQlRzzH+ZhGi4euvfYU76maSZYcumL0RVXRC8AC9vWTMM16hbt7TRLH9+
sho2CA3+UljcYktKjpz5+PL4TA2hCT/YK+KsWufSsdgSE4E/RDzKfbb+38JfKT+c
e160AkzC
-----END CERTIFICATE-----
