Certificate:
    Data:
        Version: 3 (0x2)
        Serial Number: 268435686 (0x100000e6)
    Signature Algorithm: sha256WithRSAEncryption
        Issuer: C=DE, ST=Hessen, O=privacyidea, CN=CA001
        Validity
            Not Before: Apr 27 15:18:06 2017 GMT
            Not After : Apr 27 15:18:06 2018 GMT
        Subject: C=DE, ST=Hessen, O=privacyidea, CN=requester.localdomain
        Subject Public Key Info:
            Public Key Algorithm: rsaEncryption
                Public-Key: (2048 bit)
                Modulus:
                    00:cd:be:14:4f:fa:ce:01:3f:42:22:1b:1d:9c:af:
                    dd:92:d2:7f:db:6c:b7:3e:39:43:43:6b:13:03:f1:
                    05:f4:07:74:bc:76:69:28:0b:af:19:8e:d7:fc:e3:
                    cd:c6:58:f2:ca:7f:08:6d:53:fc:07:02:44:24:c6:
                    b4:34:4c:8c:04:fe:33:0e:40:e2:20:ba:02:73:5a:
                    f7:f5:4f:63:6e:cc:c6:b6:df:54:1d:37:39:7d:51:
                    36:26:5f:bd:dc:3f:a8:8b:6b:a2:ae:b6:9d:d6:21:
                    e7:df:41:b8:7a:28:2a:68:48:ca:a8:2d:ed:e1:e9:
                    46:5e:5a:72:6d:b4:84:38:87:91:fd:94:11:0b:28:
                    84:c6:c2:2f:2a:fb:01:f9:36:7a:09:75:d1:33:88:
                    3c:73:41:5b:c8:bf:94:89:70:a1:f0:c0:b9:2e:50:
                    53:1e:b1:17:64:69:f4:2d:81:e0:a9:0d:0e:32:e9:
                    ba:55:8a:85:f1:1b:6f:49:79:b4:7f:88:c3:0d:3e:
                    54:88:9b:3d:1f:38:8c:04:f3:ee:6a:63:2b:f5:c6:
                    db:b4:83:aa:c4:78:41:3a:7d:4b:e1:c8:3e:71:ca:
                    1b:61:59:ea:c6:c4:ca:32:5e:c9:e9:bf:12:29:e6:
                    c6:c3:63:fe:a0:55:da:7a:f1:60:98:4d:26:ed:fa:
                    70:2d
                Exponent: 65537 (0x10001)
        X509v3 extensions:
            X509v3 Key Usage: 
                Digital Signature, Key Encipherment
            X509v3 Basic Constraints: 
                CA:FALSE
            Netscape Cert Type: 
                SSL Server
            Netscape Comment: 
                OpenSSL Generated Server Certificate
            X509v3 Subject Key Identifier: 
                53:3F:ED:5D:09:07:B3:65:7B:AB:45:C9:24:5B:09:77:80:0A:96:ED
            X509v3 Authority Key Identifier: 
                keyid:F4:A7:C0:CC:91:46:AF:64:F3:91:F2:27:F8:C8:B2:6F:8A:87:32:73
                DirName:/C=DE/ST=Hessen/O=privacyidea/CN=CA001
                serial:FB:C8:EB:AC:83:CD:12:07

            X509v3 Extended Key Usage: 
                TLS Web Server Authentication
    Signature Algorithm: sha256WithRSAEncryption
         1c:3e:e2:71:cf:d6:84:01:db:d0:43:53:80:2c:4e:d6:26:d3:
         0f:fd:2a:27:50:8a:30:23:e1:af:fa:f7:01:46:8d:f1:d9:d4:
         60:90:8e:1e:5f:03:6e:6d:7f:c2:b9:20:9a:96:58:0c:f1:ec:
         5d:95:78:4c:8b:a0:db:89:95:d1:6c:72:41:26:0b:d3:03:81:
         dd:39:8a:3d:43:f2:eb:ed:a6:d1:45:93:e9:44:64:bb:62:74:
         37:b8:25:51:33:a5:2a:d2:f0:3c:92:65:54:1d:94:73:93:9a:
         46:63:3e:ad:1a:f8:d0:99:c9:c9:bb:02:57:11:06:cf:cb:0f:
         f4:3a:39:45:91:b8:2b:fa:93:bd:47:36:09:a0:ec:ba:d3:45:
         7a:a7:c7:9b:bf:e7:ea:8d:fa:b6:10:af:ca:1c:90:1a:5a:d0:
         f1:0b:9c:a9:74:dd:66:46:7e:fa:61:fa:78:91:69:39:10:42:
         d0:5c:64:cc:44:64:73:8b:0e:eb:55:1d:a1:52:d7:ae:23:48:
         b8:37:73:eb:a8:37:cb:cb:2d:bb:2e:23:05:a6:34:25:cd:25:
         5d:be:e0:b8:f8:57:1c:5b:40:a6:b9:bb:3a:db:93:8e:c7:a6:
         06:5b:f9:8e:08:86:e3:07:0d:e1:89:bb:98:81:3a:ac:4a:98:
         93:e9:bd:1e
-----BEGIN CERTIFICATE-----
MIIEJjCCAw6gAwIBAgIEEAAA5jANBgkqhkiG9w0BAQsFADBEMQswCQYDVQQGEwJE
RTEPMA0GA1UECAwGSGVzc2VuMRQwEgYDVQQKDAtwcml2YWN5aWRlYTEOMAwGA1UE
AwwFQ0EwMDEwHhcNMTcwNDI3MTUxODA2WhcNMTgwNDI3MTUxODA2WjBUMQswCQYD
VQQGEwJERTEPMA0GA1UECAwGSGVzc2VuMRQwEgYDVQQKDAtwcml2YWN5aWRlYTEe
MBwGA1UEAwwVcmVxdWVzdGVyLmxvY2FsZG9tYWluMIIBIjANBgkqhkiG9w0BAQEF
AAOCAQ8AMIIBCgKCAQEAzb4UT/rOAT9CIhsdnK/dktJ/22y3PjlDQ2sTA/EF9Ad0
vHZpKAuvGY7X/OPNxljyyn8IbVP8BwJEJMa0NEyMBP4zDkDiILoCc1r39U9jbszG
tt9UHTc5fVE2Jl+93D+oi2uirrad1iHn30G4eigqaEjKqC3t4elGXlpybbSEOIeR
/ZQRCyiExsIvKvsB+TZ6CXXRM4g8c0FbyL+UiXCh8MC5LlBTHrEXZGn0LYHgqQ0O
Mum6VYqF8RtvSXm0f4jDDT5UiJs9HziMBPPuamMr9cbbtIOqxHhBOn1L4cg+ccob
YVnqxsTKMl7J6b8SKebGw2P+oFXaevFgmE0m7fpwLQIDAQABo4IBDjCCAQowCwYD
VR0PBAQDAgWgMAkGA1UdEwQCMAAwEQYJYIZIAYb4QgEBBAQDAgZAMDMGCWCGSAGG
+EIBDQQmFiRPcGVuU1NMIEdlbmVyYXRlZCBTZXJ2ZXIgQ2VydGlmaWNhdGUwHQYD
VR0OBBYEFFM/7V0JB7Nle6tFySRbCXeACpbtMHQGA1UdIwRtMGuAFPSnwMyRRq9k
85HyJ/jIsm+KhzJzoUikRjBEMQswCQYDVQQGEwJERTEPMA0GA1UECAwGSGVzc2Vu
MRQwEgYDVQQKDAtwcml2YWN5aWRlYTEOMAwGA1UEAwwFQ0EwMDGCCQD7yOusg80S
BzATBgNVHSUEDDAKBggrBgEFBQcDATANBgkqhkiG9w0BAQsFAAOCAQEAHD7icc/W
hAHb0ENTgCxO1ibTD/0qJ1CKMCPhr/r3AUaN8dnUYJCOHl8Dbm1/wrkgmpZYDPHs
XZV4TIug24mV0WxyQSYL0wOB3TmKPUPy6+2m0UWT6URku2J0N7glUTOlKtLwPJJl
VB2Uc5OaRmM+rRr40JnJybsCVxEGz8sP9Do5RZG4K/qTvUc2CaDsutNFeqfHm7/n
6o36thCvyhyQGlrQ8QucqXTdZkZ++mH6eJFpORBC0FxkzERkc4sO61UdoVLXriNI
uDdz66g3y8stuy4jBaY0Jc0lXb7guPhXHFtAprm7OtuTjsemBlv5jgiG4wcN4Ym7
mIE6rEqYk+m9Hg==
-----END CERTIFICATE-----
