Certificate:
    Data:
        Version: 3 (0x2)
        Serial Number: 268435672 (0x100000d8)
    Signature Algorithm: sha256WithRSAEncryption
        Issuer: C=DE, ST=Hessen, O=privacyidea, CN=CA001
        Validity
            Not Before: Jul 31 22:46:30 2017 GMT
            Not After : Jul 31 22:46:30 2018 GMT
        Subject: C=DE, ST=Hessen, O=privacyidea, CN=requester.localdomain
        Subject Public Key Info:
            Public Key Algorithm: rsaEncryption
                Public-Key: (2048 bit)
                Modulus:
                    00:cd:be:14:4f:fa:ce:01:3f:42:22:1b:1d:9c:af:
                    dd:92:d2:7f:db:6c:b7:3e:39:43:43:6b:13:03:f1:
                    05:f4:07:74:bc:76:69:28:0b:af:19:8e:d7:fc:e3:
                    cd:c6:58:f2:ca:7f:08:6d:53:fc:07:02:44:24:c6:
                    b4:34:4c:8c:04:fe:33:0e:40:e2:20:ba:02:73:5a:
                    f7:f5:4f:63:6e:cc:c6:b6:df:54:1d:37:39:7d:51:
                    36:26:5f:bd:dc:3f:a8:8b:6b:a2:ae:b6:9d:d6:21:
                    e7:df:41:b8:7a:28:2a:68:48:ca:a8:2d:ed:e1:e9:
                    46:5e:5a:72:6d:b4:84:38:87:91:fd:94:11:0b:28:
                    84:c6:c2:2f:2a:fb:01:f9:36:7a:09:75:d1:33:88:
                    3c:73:41:5b:c8:bf:94:89:70:a1:f0:c0:b9:2e:50:
                    53:1e:b1:17:64:69:f4:2d:81:e0:a9:0d:0e:32:e9:
                    ba:55:8a:85:f1:1b:6f:49:79:b4:7f:88:c3:0d:3e:
                    54:88:9b:3d:1f:38:8c:04:f3:ee:6a:63:2b:f5:c6:
                    db:b4:83:aa:c4:78:41:3a:7d:4b:e1:c8:3e:71:ca:
                    1b:61:59:ea:c6:c4:ca:32:5e:c9:e9:bf:12:29:e6:
                    c6:c3:63:fe:a0:55:da:7a:f1:60:98:4d:26:ed:fa:
                    70:2d
                Exponent: 65537 (0x10001)
        X509v3 extensions:
            X509v3 Key Usage: 
                Digital Signature, Key Encipherment
            X509v3 Basic Constraints: 
                CA:FALSE
            Netscape Cert Type: 
                SSL Server
            Netscape Comment: 
                OpenSSL Generated Server Certificate
            X509v3 Subject Key Identifier: 
                53:3F:ED:5D:09:07:B3:65:7B:AB:45:C9:24:5B:09:77:80:0A:96:ED
            X509v3 Authority Key Identifier: 
                keyid:F4:A7:C0:CC:91:46:AF:64:F3:91:F2:27:F8:C8:B2:6F:8A:87:32:73
                DirName:/C=DE/ST=Hessen/O=privacyidea/CN=CA001
                serial:FB:C8:EB:AC:83:CD:12:07

            X509v3 Extended Key Usage: 
                TLS Web Server Authentication
    Signature Algorithm: sha256WithRSAEncryption
         97:11:b6:24:5d:3d:a8:2c:aa:f3:82:fd:d3:87:c7:64:c0:2e:
         64:11:d5:2f:eb:76:2f:f5:cd:7d:82:13:74:19:df:c5:92:70:
         0e:67:be:c2:b1:33:5d:67:ac:ce:30:e2:7b:05:4a:d7:03:e4:
         6d:1e:34:1d:b5:c9:85:aa:d4:78:73:8d:55:8a:36:9b:d2:ec:
         f3:48:af:a8:6d:71:8f:5a:63:05:60:0a:2e:cb:82:d4:24:2f:
         2e:a6:01:2f:7b:9c:78:49:f7:8d:a0:09:7c:32:b1:68:0f:6e:
         ef:60:e8:ab:2e:31:07:4d:6e:ad:5b:81:e9:8c:f9:91:44:22:
         4d:1b:d1:54:15:11:01:15:96:d8:5a:10:f3:c0:8a:b5:65:36:
         97:ac:85:c4:f6:98:29:1b:76:ca:20:54:a7:b4:b4:24:b5:e1:
         f5:c9:cb:f1:10:f2:64:21:94:5d:a0:cd:0c:a7:25:8b:cb:31:
         9b:6e:16:70:64:c5:20:00:68:e4:49:b4:53:a2:d1:79:7f:a7:
         90:8e:ed:4e:c5:b0:6c:66:b8:59:0b:dc:66:f1:6a:f9:bc:de:
         d2:17:ca:b1:2c:de:a8:3b:dd:d5:8d:f1:7f:cd:14:c7:d3:64:
         72:35:58:21:70:2a:4a:57:68:f4:de:4e:bb:69:1a:16:5d:48:
         bd:a7:cd:98
-----BEGIN CERTIFICATE-----
MIIEJjCCAw6gAwIBAgIEEAAA2DANBgkqhkiG9w0BAQsFADBEMQswCQYDVQQGEwJE
RTEPMA0GA1UECAwGSGVzc2VuMRQwEgYDVQQKDAtwcml2YWN5aWRlYTEOMAwGA1UE
AwwFQ0EwMDEwHhcNMTcwNzMxMjI0NjMwWhcNMTgwNzMxMjI0NjMwWjBUMQswCQYD
VQQGEwJERTEPMA0GA1UECAwGSGVzc2VuMRQwEgYDVQQKDAtwcml2YWN5aWRlYTEe
MBwGA1UEAwwVcmVxdWVzdGVyLmxvY2FsZG9tYWluMIIBIjANBgkqhkiG9w0BAQEF
AAOCAQ8AMIIBCgKCAQEAzb4UT/rOAT9CIhsdnK/dktJ/22y3PjlDQ2sTA/EF9Ad0
vHZpKAuvGY7X/OPNxljyyn8IbVP8BwJEJMa0NEyMBP4zDkDiILoCc1r39U9jbszG
tt9UHTc5fVE2Jl+93D+oi2uirrad1iHn30G4eigqaEjKqC3t4elGXlpybbSEOIeR
/ZQRCyiExsIvKvsB+TZ6CXXRM4g8c0FbyL+UiXCh8MC5LlBTHrEXZGn0LYHgqQ0O
Mum6VYqF8RtvSXm0f4jDDT5UiJs9HziMBPPuamMr9cbbtIOqxHhBOn1L4cg+ccob
YVnqxsTKMl7J6b8SKebGw2P+oFXaevFgmE0m7fpwLQIDAQABo4IBDjCCAQowCwYD
VR0PBAQDAgWgMAkGA1UdEwQCMAAwEQYJYIZIAYb4QgEBBAQDAgZAMDMGCWCGSAGG
+EIBDQQmFiRPcGVuU1NMIEdlbmVyYXRlZCBTZXJ2ZXIgQ2VydGlmaWNhdGUwHQYD
VR0OBBYEFFM/7V0JB7Nle6tFySRbCXeACpbtMHQGA1UdIwRtMGuAFPSnwMyRRq9k
85HyJ/jIsm+KhzJzoUikRjBEMQswCQYDVQQGEwJERTEPMA0GA1UECAwGSGVzc2Vu
MRQwEgYDVQQKDAtwcml2YWN5aWRlYTEOMAwGA1UEAwwFQ0EwMDGCCQD7yOusg80S
BzATBgNVHSUEDDAKBggrBgEFBQcDATANBgkqhkiG9w0BAQsFAAOCAQEAlxG2JF09
qCyq84L904fHZMAuZBHVL+t2L/XNfYITdBnfxZJwDme+wrEzXWeszjDiewVK1wPk
bR40HbXJharUeHONVYo2m9Ls80ivqG1xj1pjBWAKLsuC1CQvLqYBL3uceEn3jaAJ
fDKxaA9u72Doqy4xB01urVuB6Yz5kUQiTRvRVBURARWW2FoQ88CKtWU2l6yFxPaY
KRt2yiBUp7S0JLXh9cnL8RDyZCGUXaDNDKcli8sxm24WcGTFIABo5Em0U6LReX+n
kI7tTsWwbGa4WQvcZvFq+bze0hfKsSzeqDvd1Y3xf80Ux9NkcjVYIXAqSldo9N5O
u2kaFl1IvafNmA==
-----END CERTIFICATE-----
