Certificate:
    Data:
        Version: 3 (0x2)
        Serial Number: 268435671 (0x100000d7)
    Signature Algorithm: sha256WithRSAEncryption
        Issuer: C=DE, ST=Hessen, O=privacyidea, CN=CA001
        Validity
            Not Before: Aug  7 12:26:48 2017 GMT
            Not After : Aug  7 12:26:48 2018 GMT
        Subject: CN=selfservice,CN=user,O=realm1/emailAddress=meine
        Subject Public Key Info:
            Public Key Algorithm: rsaEncryption
                Public-Key: (2048 bit)
                Modulus:
                    00:cf:3c:d4:33:0e:12:c4:e6:da:cd:b6:56:a1:1c:
                    26:bb:26:1c:8a:4a:73:a8:58:8a:b6:1e:b3:8b:99:
                    d2:1d:07:c2:92:89:79:c0:69:d8:c8:df:28:61:98:
                    1e:b3:fe:ae:2b:bd:78:a9:f7:6e:47:dc:a3:a0:16:
                    8c:85:02:c1:4e:92:fd:72:6e:f0:c8:03:29:9b:b8:
                    00:6e:c0:83:95:c8:34:20:36:9c:b3:e5:e4:e6:76:
                    73:a3:1a:ad:40:96:e0:53:54:00:ec:76:79:9a:c6:
                    0d:7e:b6:bd:29:ec:83:f3:cb:89:a4:cb:6c:00:ba:
                    0c:c5:78:0f:ff:69:b8:94:f4:04:70:43:3f:d8:9e:
                    d7:a7:fb:5d:ce:75:8e:da:e7:c4:07:b1:9d:de:6f:
                    88:4b:b6:4d:9a:cf:f9:bc:fa:9f:cd:32:6d:f6:3a:
                    0b:0d:23:42:78:ec:97:42:bf:0e:4d:60:56:e1:d3:
                    02:f2:19:cb:84:57:90:e5:70:a1:a2:83:35:86:e2:
                    da:86:9f:f9:8a:c4:79:b3:52:28:da:cb:bb:34:ca:
                    d3:da:91:4a:cf:8d:76:a2:b2:6b:9b:f9:96:fd:09:
                    2a:da:11:23:4d:f0:cb:d6:b2:b1:0e:12:6c:9a:19:
                    65:98:87:ca:e4:ee:24:ce:44:ac:90:8f:9d:1b:c5:
                    2a:9d
                Exponent: 65537 (0x10001)
        X509v3 extensions:
            X509v3 Key Usage: 
                Digital Signature, Key Encipherment
            X509v3 Basic Constraints: 
                CA:FALSE
            Netscape Cert Type: 
                SSL Server
            Netscape Comment: 
                OpenSSL Generated Server Certificate
            X509v3 Subject Key Identifier: 
                4D:07:90:AD:FF:1D:0D:E7:1A:DD:D6:2E:FA:BA:34:CB:AA:1F:24:C6
            X509v3 Authority Key Identifier: 
                keyid:F4:A7:C0:CC:91:46:AF:64:F3:91:F2:27:F8:C8:B2:6F:8A:87:32:73
                DirName:/C=DE/ST=Hessen/O=privacyidea/CN=CA001
                serial:FB:C8:EB:AC:83:CD:12:07

            X509v3 Extended Key Usage: 
                TLS Web Server Authentication
    Signature Algorithm: sha256WithRSAEncryption
         69:b3:43:d1:e2:5d:78:ab:27:da:0a:d5:86:90:69:0e:cb:25:
         ba:ae:f1:c0:68:43:d9:3b:7a:05:3c:97:b0:01:ef:84:91:0e:
         d2:0c:97:d4:58:85:c0:85:3c:f2:29:83:27:b5:d1:b7:ff:ba:
         34:c6:83:1c:ac:7e:99:05:fa:52:16:86:0e:1b:30:12:d2:91:
         b7:e6:d9:a6:4a:ad:99:4f:ac:d2:2b:7b:d3:9e:dd:a8:f2:9b:
         c3:7c:d9:fc:32:d5:08:8b:1a:a1:55:2c:ca:32:e9:88:15:a4:
         4c:c2:2e:ed:2b:b9:3a:8e:10:76:b4:82:2f:f1:f7:01:16:a1:
         28:54:66:2f:c9:65:50:a9:dc:30:83:fb:63:d0:ef:94:d0:00:
         79:48:30:4c:05:dc:88:28:78:a4:c0:1f:11:3c:97:6f:c7:83:
         e3:4c:c0:d5:c7:1c:5a:1b:f9:65:65:45:37:5f:b8:01:ae:9d:
         cd:6b:91:24:0e:e2:ae:01:f0:f8:f0:ab:a7:de:20:0f:88:2d:
         2d:f1:08:5a:5b:04:ad:83:50:61:35:8d:05:41:8c:20:c6:7d:
         ae:fb:a6:7f:82:4d:a6:49:f3:36:01:11:3a:78:5c:08:4f:60:
         20:cf:d9:f1:5b:9d:3c:03:1e:f5:e1:ad:f7:5b:3c:2c:90:c0:
         50:fe:f2:91
-----BEGIN CERTIFICATE-----
MIIEDzCCAvegAwIBAgIEEAAA1zANBgkqhkiG9w0BAQsFADBEMQswCQYDVQQGEwJE
RTEPMA0GA1UECAwGSGVzc2VuMRQwEgYDVQQKDAtwcml2YWN5aWRlYTEOMAwGA1UE
AwwFQ0EwMDEwHhcNMTcwODA3MTIyNjQ4WhcNMTgwODA3MTIyNjQ4WjA9MSUwIwYD
VQQDDBxzZWxmc2VydmljZSxDTj11c2VyLE89cmVhbG0xMRQwEgYJKoZIhvcNAQkB
FgVtZWluZTCCASIwDQYJKoZIhvcNAQEBBQADggEPADCCAQoCggEBAM881DMOEsTm
2s22VqEcJrsmHIpKc6hYirYes4uZ0h0HwpKJecBp2MjfKGGYHrP+riu9eKn3bkfc
o6AWjIUCwU6S/XJu8MgDKZu4AG7Ag5XINCA2nLPl5OZ2c6MarUCW4FNUAOx2eZrG
DX62vSnsg/PLiaTLbAC6DMV4D/9puJT0BHBDP9ie16f7Xc51jtrnxAexnd5viEu2
TZrP+bz6n80ybfY6Cw0jQnjsl0K/Dk1gVuHTAvIZy4RXkOVwoaKDNYbi2oaf+YrE
ebNSKNrLuzTK09qRSs+NdqKya5v5lv0JKtoRI03wy9aysQ4SbJoZZZiHyuTuJM5E
rJCPnRvFKp0CAwEAAaOCAQ4wggEKMAsGA1UdDwQEAwIFoDAJBgNVHRMEAjAAMBEG
CWCGSAGG+EIBAQQEAwIGQDAzBglghkgBhvhCAQ0EJhYkT3BlblNTTCBHZW5lcmF0
ZWQgU2VydmVyIENlcnRpZmljYXRlMB0GA1UdDgQWBBRNB5Ct/x0N5xrd1i76ujTL
qh8kxjB0BgNVHSMEbTBrgBT0p8DMkUavZPOR8if4yLJviocyc6FIpEYwRDELMAkG
A1UEBhMCREUxDzANBgNVBAgMBkhlc3NlbjEUMBIGA1UECgwLcHJpdmFjeWlkZWEx
DjAMBgNVBAMMBUNBMDAxggkA+8jrrIPNEgcwEwYDVR0lBAwwCgYIKwYBBQUHAwEw
DQYJKoZIhvcNAQELBQADggEBAGmzQ9HiXXirJ9oK1YaQaQ7LJbqu8cBoQ9k7egU8
l7AB74SRDtIMl9RYhcCFPPIpgye10bf/ujTGgxysfpkF+lIWhg4bMBLSkbfm2aZK
rZlPrNIre9Oe3ajym8N82fwy1QiLGqFVLMoy6YgVpEzCLu0ruTqOEHa0gi/x9wEW
oShUZi/JZVCp3DCD+2PQ75TQAHlIMEwF3IgoeKTAHxE8l2/Hg+NMwNXHHFob+WVl
RTdfuAGunc1rkSQO4q4B8Pjwq6feIA+ILS3xCFpbBK2DUGE1jQVBjCDGfa77pn+C
TaZJ8zYBETp4XAhPYCDP2fFbnTwDHvXhrfdbPCyQwFD+8pE=
-----END CERTIFICATE-----
