Certificate:
    Data:
        Version: 3 (0x2)
        Serial Number: 268435685 (0x100000e5)
    Signature Algorithm: sha256WithRSAEncryption
        Issuer: C=DE, ST=Hessen, O=privacyidea, CN=CA001
        Validity
            Not Before: Apr 27 15:14:46 2017 GMT
            Not After : May 17 15:14:46 2019 GMT
        Subject: CN=Steve Test/emailAddress=steve@openssl.org
        Subject Public Key Info:
            Public Key Algorithm: rsaEncryption
                Public-Key: (2048 bit)
                Modulus:
                    00:d2:81:89:20:51:48:0f:73:f4:11:32:24:d5:1f:
                    1c:fd:5c:f5:b6:e6:c5:f0:52:81:dc:d2:af:66:4a:
                    7c:93:31:61:5c:af:d1:6d:06:70:03:60:7c:72:0c:
                    88:dd:49:cd:9e:02:6c:d2:5a:d7:53:0f:f3:da:be:
                    69:64:b5:0f:0c:00:e3:b3:50:47:a3:b3:9b:ba:13:
                    50:d6:58:5a:4b:ab:39:e0:11:ca:0a:27:67:03:78:
                    22:66:6d:92:1e:1b:5c:49:ae:e6:6b:d1:8e:3b:9d:
                    06:d3:c6:ac:4d:53:43:10:ab:e8:96:c1:87:82:97:
                    99:8f:20:d3:99:12:37:31:84:e1:8a:ff:29:03:5f:
                    22:90:3e:7f:9b:e0:20:c1:ad:dc:ae:4c:39:1a:31:
                    96:17:02:8c:b2:d9:b4:0d:20:12:9b:7d:86:54:fd:
                    33:fd:c1:2a:62:46:f8:60:96:cf:6e:01:6f:22:df:
                    13:47:e7:97:ec:05:72:23:a3:62:f8:fa:ef:ac:9c:
                    72:f0:37:cb:2f:37:cf:90:a8:27:51:86:c6:d7:78:
                    08:8f:7e:25:a2:15:70:a2:fb:1c:b6:15:5e:a0:97:
                    8b:81:4c:09:28:8a:27:3b:94:bc:71:db:5b:71:37:
                    9a:2b:16:e0:6f:b5:c9:f5:4b:4f:20:ba:65:cf:af:
                    ad:ad
                Exponent: 65537 (0x10001)
        X509v3 extensions:
            X509v3 Key Usage: 
                Digital Signature, Key Encipherment
            X509v3 Basic Constraints: 
                CA:FALSE
            Netscape Cert Type: 
                SSL Server
            Netscape Comment: 
                OpenSSL Generated Server Certificate
            X509v3 Subject Key Identifier: 
                E5:25:6D:3E:AF:0D:DD:3F:4C:F2:45:19:39:D5:14:DB:7E:9C:C0:AD
            X509v3 Authority Key Identifier: 
                keyid:F4:A7:C0:CC:91:46:AF:64:F3:91:F2:27:F8:C8:B2:6F:8A:87:32:73
                DirName:/C=DE/ST=Hessen/O=privacyidea/CN=CA001
                serial:FB:C8:EB:AC:83:CD:12:07

            X509v3 Extended Key Usage: 
                TLS Web Server Authentication
    Signature Algorithm: sha256WithRSAEncryption
         ae:c6:40:4e:f1:6e:d0:17:2c:6f:5c:b3:86:a4:28:9f:7e:45:
         a9:6a:28:20:fa:8f:21:a9:b2:7b:db:40:3b:e5:51:0c:f7:67:
         b7:59:9e:7f:eb:af:a3:85:a8:62:ab:21:73:e9:c6:44:2e:50:
         f1:63:3a:a7:ed:5f:32:87:84:7c:2e:db:a1:89:78:01:03:91:
         bc:6f:a1:5c:45:98:e0:e6:48:87:ef:ff:69:fc:e6:7c:b3:26:
         48:7e:78:80:86:d8:0c:76:58:e3:4b:06:c8:7c:b3:f2:ee:74:
         cb:1a:dd:4a:a1:34:5c:f7:e6:06:4a:ba:13:c6:29:93:7c:7c:
         7d:1c:8f:ac:25:1a:18:f2:71:b4:f5:6c:b3:26:f0:02:dc:89:
         bb:cb:0a:bb:11:67:6c:9f:c2:9b:b3:9c:21:f1:89:85:57:ab:
         1f:7f:47:53:74:57:d2:c1:ec:1e:53:f5:07:94:d9:7a:2a:08:
         98:42:74:7b:02:32:11:3b:7d:5f:f5:2a:70:b4:e2:09:cc:8c:
         13:80:0d:d3:5a:97:0f:8b:0b:6d:e8:02:08:76:fd:0c:1e:ed:
         17:68:5d:95:5d:3b:65:2b:ec:18:70:de:e2:a0:38:a9:fb:e8:
         14:1b:ea:a4:f2:88:42:9b:58:f0:3b:ee:94:6d:ce:6c:77:d5:
         99:a7:4d:d8
-----BEGIN CERTIFICATE-----
MIIECTCCAvGgAwIBAgIEEAAA5TANBgkqhkiG9w0BAQsFADBEMQswCQYDVQQGEwJE
RTEPMA0GA1UECAwGSGVzc2VuMRQwEgYDVQQKDAtwcml2YWN5aWRlYTEOMAwGA1UE
AwwFQ0EwMDEwHhcNMTcwNDI3MTUxNDQ2WhcNMTkwNTE3MTUxNDQ2WjA3MRMwEQYD
VQQDDApTdGV2ZSBUZXN0MSAwHgYJKoZIhvcNAQkBFhFzdGV2ZUBvcGVuc3NsLm9y
ZzCCASIwDQYJKoZIhvcNAQEBBQADggEPADCCAQoCggEBANKBiSBRSA9z9BEyJNUf
HP1c9bbmxfBSgdzSr2ZKfJMxYVyv0W0GcANgfHIMiN1JzZ4CbNJa11MP89q+aWS1
DwwA47NQR6Ozm7oTUNZYWkurOeARygonZwN4ImZtkh4bXEmu5mvRjjudBtPGrE1T
QxCr6JbBh4KXmY8g05kSNzGE4Yr/KQNfIpA+f5vgIMGt3K5MORoxlhcCjLLZtA0g
Ept9hlT9M/3BKmJG+GCWz24BbyLfE0fnl+wFciOjYvj676yccvA3yy83z5CoJ1GG
xtd4CI9+JaIVcKL7HLYVXqCXi4FMCSiKJzuUvHHbW3E3misW4G+1yfVLTyC6Zc+v
ra0CAwEAAaOCAQ4wggEKMAsGA1UdDwQEAwIFoDAJBgNVHRMEAjAAMBEGCWCGSAGG
+EIBAQQEAwIGQDAzBglghkgBhvhCAQ0EJhYkT3BlblNTTCBHZW5lcmF0ZWQgU2Vy
dmVyIENlcnRpZmljYXRlMB0GA1UdDgQWBBTlJW0+rw3dP0zyRRk51RTbfpzArTB0
BgNVHSMEbTBrgBT0p8DMkUavZPOR8if4yLJviocyc6FIpEYwRDELMAkGA1UEBhMC
REUxDzANBgNVBAgMBkhlc3NlbjEUMBIGA1UECgwLcHJpdmFjeWlkZWExDjAMBgNV
BAMMBUNBMDAxggkA+8jrrIPNEgcwEwYDVR0lBAwwCgYIKwYBBQUHAwEwDQYJKoZI
hvcNAQELBQADggEBAK7GQE7xbtAXLG9cs4akKJ9+RalqKCD6jyGpsnvbQDvlUQz3
Z7dZnn/rr6OFqGKrIXPpxkQuUPFjOqftXzKHhHwu26GJeAEDkbxvoVxFmODmSIfv
/2n85nyzJkh+eICG2Ax2WONLBsh8s/LudMsa3UqhNFz35gZKuhPGKZN8fH0cj6wl
GhjycbT1bLMm8ALcibvLCrsRZ2yfwpuznCHxiYVXqx9/R1N0V9LB7B5T9QeU2Xoq
CJhCdHsCMhE7fV/1KnC04gnMjBOADdNalw+LC23oAgh2/Qwe7RdoXZVdO2Ur7Bhw
3uKgOKn76BQb6qTyiEKbWPA77pRtzmx31ZmnTdg=
-----END CERTIFICATE-----
