Certificate:
    Data:
        Version: 3 (0x2)
        Serial Number: 268435676 (0x100000dc)
    Signature Algorithm: sha256WithRSAEncryption
        Issuer: C=DE, ST=Hessen, O=privacyidea, CN=CA001
        Validity
            Not Before: Jul 31 22:48:10 2017 GMT
            Not After : Aug 20 22:48:10 2019 GMT
        Subject: CN=Steve Test/emailAddress=steve@openssl.org
        Subject Public Key Info:
            Public Key Algorithm: rsaEncryption
                Public-Key: (2048 bit)
                Modulus:
                    00:d2:81:89:20:51:48:0f:73:f4:11:32:24:d5:1f:
                    1c:fd:5c:f5:b6:e6:c5:f0:52:81:dc:d2:af:66:4a:
                    7c:93:31:61:5c:af:d1:6d:06:70:03:60:7c:72:0c:
                    88:dd:49:cd:9e:02:6c:d2:5a:d7:53:0f:f3:da:be:
                    69:64:b5:0f:0c:00:e3:b3:50:47:a3:b3:9b:ba:13:
                    50:d6:58:5a:4b:ab:39:e0:11:ca:0a:27:67:03:78:
                    22:66:6d:92:1e:1b:5c:49:ae:e6:6b:d1:8e:3b:9d:
                    06:d3:c6:ac:4d:53:43:10:ab:e8:96:c1:87:82:97:
                    99:8f:20:d3:99:12:37:31:84:e1:8a:ff:29:03:5f:
                    22:90:3e:7f:9b:e0:20:c1:ad:dc:ae:4c:39:1a:31:
                    96:17:02:8c:b2:d9:b4:0d:20:12:9b:7d:86:54:fd:
                    33:fd:c1:2a:62:46:f8:60:96:cf:6e:01:6f:22:df:
                    13:47:e7:97:ec:05:72:23:a3:62:f8:fa:ef:ac:9c:
                    72:f0:37:cb:2f:37:cf:90:a8:27:51:86:c6:d7:78:
                    08:8f:7e:25:a2:15:70:a2:fb:1c:b6:15:5e:a0:97:
                    8b:81:4c:09:28:8a:27:3b:94:bc:71:db:5b:71:37:
                    9a:2b:16:e0:6f:b5:c9:f5:4b:4f:20:ba:65:cf:af:
                    ad:ad
                Exponent: 65537 (0x10001)
        X509v3 extensions:
            X509v3 Key Usage: 
                Digital Signature, Key Encipherment
            X509v3 Basic Constraints: 
                CA:FALSE
            Netscape Cert Type: 
                SSL Server
            Netscape Comment: 
                OpenSSL Generated Server Certificate
            X509v3 Subject Key Identifier: 
                E5:25:6D:3E:AF:0D:DD:3F:4C:F2:45:19:39:D5:14:DB:7E:9C:C0:AD
            X509v3 Authority Key Identifier: 
                keyid:F4:A7:C0:CC:91:46:AF:64:F3:91:F2:27:F8:C8:B2:6F:8A:87:32:73
                DirName:/C=DE/ST=Hessen/O=privacyidea/CN=CA001
                serial:FB:C8:EB:AC:83:CD:12:07

            X509v3 Extended Key Usage: 
                TLS Web Server Authentication
    Signature Algorithm: sha256WithRSAEncryption
         57:e2:df:54:6d:67:89:80:53:fe:93:09:38:2c:1c:24:02:5a:
         70:5e:ac:d3:2e:8a:5e:32:46:ac:74:7d:23:23:ee:42:33:5b:
         02:16:c5:7c:bf:25:56:f2:0b:80:23:b8:e0:6f:9e:89:ae:a9:
         bd:7c:6f:cd:1c:8b:f8:2b:38:a4:71:a4:87:b6:35:39:b5:4e:
         56:29:d7:51:b9:f5:5e:00:67:b6:9d:89:d5:ea:cd:7f:73:4e:
         e5:05:f6:76:25:dc:2c:ca:03:3e:eb:bf:e1:40:86:a7:94:9a:
         59:a4:6b:d3:fd:4e:15:7f:e7:1f:6e:8e:8e:b2:5a:d5:f4:c2:
         1b:c7:2f:a2:61:53:99:49:7e:1a:98:6e:2f:a3:33:12:5b:ec:
         ff:eb:37:a1:e8:dd:89:82:d0:42:2c:8f:d5:4b:d5:8d:cf:53:
         ca:bd:ab:02:cb:64:b3:b2:48:76:90:95:1d:0c:ef:cd:3b:30:
         f3:c0:5e:b2:4a:14:8e:bf:a0:b6:92:76:33:50:15:1a:19:29:
         a7:da:d2:19:0f:2f:c6:ea:7e:8b:56:c7:0d:21:bf:9b:64:19:
         ef:3a:47:97:c7:d7:03:45:9c:c8:c4:dd:c6:b5:42:7a:88:f4:
         fe:b9:c9:2b:11:b1:75:a7:c8:aa:1d:60:c2:1b:5a:1c:ad:12:
         ac:9e:06:9c
-----BEGIN CERTIFICATE-----
MIIECTCCAvGgAwIBAgIEEAAA3DANBgkqhkiG9w0BAQsFADBEMQswCQYDVQQGEwJE
RTEPMA0GA1UECAwGSGVzc2VuMRQwEgYDVQQKDAtwcml2YWN5aWRlYTEOMAwGA1UE
AwwFQ0EwMDEwHhcNMTcwNzMxMjI0ODEwWhcNMTkwODIwMjI0ODEwWjA3MRMwEQYD
VQQDDApTdGV2ZSBUZXN0MSAwHgYJKoZIhvcNAQkBFhFzdGV2ZUBvcGVuc3NsLm9y
ZzCCASIwDQYJKoZIhvcNAQEBBQADggEPADCCAQoCggEBANKBiSBRSA9z9BEyJNUf
HP1c9bbmxfBSgdzSr2ZKfJMxYVyv0W0GcANgfHIMiN1JzZ4CbNJa11MP89q+aWS1
DwwA47NQR6Ozm7oTUNZYWkurOeARygonZwN4ImZtkh4bXEmu5mvRjjudBtPGrE1T
QxCr6JbBh4KXmY8g05kSNzGE4Yr/KQNfIpA+f5vgIMGt3K5MORoxlhcCjLLZtA0g
Ept9hlT9M/3BKmJG+GCWz24BbyLfE0fnl+wFciOjYvj676yccvA3yy83z5CoJ1GG
xtd4CI9+JaIVcKL7HLYVXqCXi4FMCSiKJzuUvHHbW3E3misW4G+1yfVLTyC6Zc+v
ra0CAwEAAaOCAQ4wggEKMAsGA1UdDwQEAwIFoDAJBgNVHRMEAjAAMBEGCWCGSAGG
+EIBAQQEAwIGQDAzBglghkgBhvhCAQ0EJhYkT3BlblNTTCBHZW5lcmF0ZWQgU2Vy
dmVyIENlcnRpZmljYXRlMB0GA1UdDgQWBBTlJW0+rw3dP0zyRRk51RTbfpzArTB0
BgNVHSMEbTBrgBT0p8DMkUavZPOR8if4yLJviocyc6FIpEYwRDELMAkGA1UEBhMC
REUxDzANBgNVBAgMBkhlc3NlbjEUMBIGA1UECgwLcHJpdmFjeWlkZWExDjAMBgNV
BAMMBUNBMDAxggkA+8jrrIPNEgcwEwYDVR0lBAwwCgYIKwYBBQUHAwEwDQYJKoZI
hvcNAQELBQADggEBAFfi31RtZ4mAU/6TCTgsHCQCWnBerNMuil4yRqx0fSMj7kIz
WwIWxXy/JVbyC4AjuOBvnomuqb18b80ci/grOKRxpIe2NTm1TlYp11G59V4AZ7ad
idXqzX9zTuUF9nYl3CzKAz7rv+FAhqeUmlmka9P9ThV/5x9ujo6yWtX0whvHL6Jh
U5lJfhqYbi+jMxJb7P/rN6Ho3YmC0EIsj9VL1Y3PU8q9qwLLZLOySHaQlR0M7807
MPPAXrJKFI6/oLaSdjNQFRoZKafa0hkPL8bqfotWxw0hv5tkGe86R5fH1wNFnMjE
3ca1QnqI9P65ySsRsXWnyKodYMIbWhytEqyeBpw=
-----END CERTIFICATE-----
