Certificate:
    Data:
        Version: 3 (0x2)
        Serial Number: 268435675 (0x100000db)
    Signature Algorithm: sha256WithRSAEncryption
        Issuer: C=DE, ST=Hessen, O=privacyidea, CN=CA001
        Validity
            Not Before: Jul 31 22:48:09 2017 GMT
            Not After : Jul 31 22:48:09 2018 GMT
        Subject: CN=Steve Test/emailAddress=steve@openssl.org
        Subject Public Key Info:
            Public Key Algorithm: rsaEncryption
                Public-Key: (2048 bit)
                Modulus:
                    00:d2:81:89:20:51:48:0f:73:f4:11:32:24:d5:1f:
                    1c:fd:5c:f5:b6:e6:c5:f0:52:81:dc:d2:af:66:4a:
                    7c:93:31:61:5c:af:d1:6d:06:70:03:60:7c:72:0c:
                    88:dd:49:cd:9e:02:6c:d2:5a:d7:53:0f:f3:da:be:
                    69:64:b5:0f:0c:00:e3:b3:50:47:a3:b3:9b:ba:13:
                    50:d6:58:5a:4b:ab:39:e0:11:ca:0a:27:67:03:78:
                    22:66:6d:92:1e:1b:5c:49:ae:e6:6b:d1:8e:3b:9d:
                    06:d3:c6:ac:4d:53:43:10:ab:e8:96:c1:87:82:97:
                    99:8f:20:d3:99:12:37:31:84:e1:8a:ff:29:03:5f:
                    22:90:3e:7f:9b:e0:20:c1:ad:dc:ae:4c:39:1a:31:
                    96:17:02:8c:b2:d9:b4:0d:20:12:9b:7d:86:54:fd:
                    33:fd:c1:2a:62:46:f8:60:96:cf:6e:01:6f:22:df:
                    13:47:e7:97:ec:05:72:23:a3:62:f8:fa:ef:ac:9c:
                    72:f0:37:cb:2f:37:cf:90:a8:27:51:86:c6:d7:78:
                    08:8f:7e:25:a2:15:70:a2:fb:1c:b6:15:5e:a0:97:
                    8b:81:4c:09:28:8a:27:3b:94:bc:71:db:5b:71:37:
                    9a:2b:16:e0:6f:b5:c9:f5:4b:4f:20:ba:65:cf:af:
                    ad:ad
                Exponent: 65537 (0x10001)
        X509v3 extensions:
            X509v3 Key Usage: 
                Digital Signature, Key Encipherment
            X509v3 Basic Constraints: 
                CA:FALSE
            Netscape Cert Type: 
                SSL Server
            Netscape Comment: 
                OpenSSL Generated Server Certificate
            X509v3 Subject Key Identifier: 
                E5:25:6D:3E:AF:0D:DD:3F:4C:F2:45:19:39:D5:14:DB:7E:9C:C0:AD
            X509v3 Authority Key Identifier: 
                keyid:F4:A7:C0:CC:91:46:AF:64:F3:91:F2:27:F8:C8:B2:6F:8A:87:32:73
                DirName:/C=DE/ST=Hessen/O=privacyidea/CN=CA001
                serial:FB:C8:EB:AC:83:CD:12:07

            X509v3 Extended Key Usage: 
                TLS Web Server Authentication
    Signature Algorithm: sha256WithRSAEncryption
         ae:01:24:bd:bf:ee:16:06:ca:58:a1:53:d7:e9:59:1a:77:a5:
         e3:17:92:88:54:9b:b2:b4:7d:ef:15:24:12:44:11:b5:26:b9:
         33:66:2d:e7:0c:61:68:8e:66:c4:07:3e:bd:56:af:98:40:ae:
         5a:1d:34:aa:d2:51:2f:63:80:67:85:98:95:73:6e:7f:b8:52:
         84:9e:da:d0:c6:45:55:35:1e:0f:e3:c4:1b:f6:df:37:8e:bb:
         ff:aa:2a:ef:5c:14:14:a1:69:d3:64:e9:e8:03:23:4d:94:98:
         77:cf:82:be:6d:32:b3:8d:b1:ac:aa:67:f3:44:cd:6a:74:d2:
         7a:6c:3d:29:c5:17:4b:3c:de:10:83:bd:41:c5:e6:d4:ac:68:
         b4:94:00:cb:0a:35:9c:d7:cf:04:ea:f7:a6:32:62:f8:fe:87:
         12:c6:8c:82:88:61:03:56:a2:df:b1:9f:14:b0:f3:57:07:55:
         7d:44:06:bf:54:0b:7b:c8:5f:0a:98:ab:37:6e:a4:49:02:0a:
         d1:71:19:79:fa:1e:d0:4f:17:07:c7:00:54:d8:33:a1:9f:77:
         31:4a:ad:69:26:e1:f2:44:13:04:f7:f5:c8:a2:80:de:03:bd:
         3b:6a:76:ac:e9:51:b9:49:22:83:21:78:63:41:71:72:dc:6b:
         83:ed:ca:f4
-----BEGIN CERTIFICATE-----
MIIECTCCAvGgAwIBAgIEEAAA2zANBgkqhkiG9w0BAQsFADBEMQswCQYDVQQGEwJE
RTEPMA0GA1UECAwGSGVzc2VuMRQwEgYDVQQKDAtwcml2YWN5aWRlYTEOMAwGA1UE
AwwFQ0EwMDEwHhcNMTcwNzMxMjI0ODA5WhcNMTgwNzMxMjI0ODA5WjA3MRMwEQYD
VQQDDApTdGV2ZSBUZXN0MSAwHgYJKoZIhvcNAQkBFhFzdGV2ZUBvcGVuc3NsLm9y
ZzCCASIwDQYJKoZIhvcNAQEBBQADggEPADCCAQoCggEBANKBiSBRSA9z9BEyJNUf
HP1c9bbmxfBSgdzSr2ZKfJMxYVyv0W0GcANgfHIMiN1JzZ4CbNJa11MP89q+aWS1
DwwA47NQR6Ozm7oTUNZYWkurOeARygonZwN4ImZtkh4bXEmu5mvRjjudBtPGrE1T
QxCr6JbBh4KXmY8g05kSNzGE4Yr/KQNfIpA+f5vgIMGt3K5MORoxlhcCjLLZtA0g
Ept9hlT9M/3BKmJG+GCWz24BbyLfE0fnl+wFciOjYvj676yccvA3yy83z5CoJ1GG
xtd4CI9+JaIVcKL7HLYVXqCXi4FMCSiKJzuUvHHbW3E3misW4G+1yfVLTyC6Zc+v
ra0CAwEAAaOCAQ4wggEKMAsGA1UdDwQEAwIFoDAJBgNVHRMEAjAAMBEGCWCGSAGG
+EIBAQQEAwIGQDAzBglghkgBhvhCAQ0EJhYkT3BlblNTTCBHZW5lcmF0ZWQgU2Vy
dmVyIENlcnRpZmljYXRlMB0GA1UdDgQWBBTlJW0+rw3dP0zyRRk51RTbfpzArTB0
BgNVHSMEbTBrgBT0p8DMkUavZPOR8if4yLJviocyc6FIpEYwRDELMAkGA1UEBhMC
REUxDzANBgNVBAgMBkhlc3NlbjEUMBIGA1UECgwLcHJpdmFjeWlkZWExDjAMBgNV
BAMMBUNBMDAxggkA+8jrrIPNEgcwEwYDVR0lBAwwCgYIKwYBBQUHAwEwDQYJKoZI
hvcNAQELBQADggEBAK4BJL2/7hYGylihU9fpWRp3peMXkohUm7K0fe8VJBJEEbUm
uTNmLecMYWiOZsQHPr1Wr5hArlodNKrSUS9jgGeFmJVzbn+4UoSe2tDGRVU1Hg/j
xBv23zeOu/+qKu9cFBShadNk6egDI02UmHfPgr5tMrONsayqZ/NEzWp00npsPSnF
F0s83hCDvUHF5tSsaLSUAMsKNZzXzwTq96YyYvj+hxLGjIKIYQNWot+xnxSw81cH
VX1EBr9UC3vIXwqYqzdupEkCCtFxGXn6HtBPFwfHAFTYM6GfdzFKrWkm4fJEEwT3
9ciigN4DvTtqdqzpUblJIoMheGNBcXLca4PtyvQ=
-----END CERTIFICATE-----
