Certificate:
    Data:
        Version: 3 (0x2)
        Serial Number: 268435678 (0x100000de)
    Signature Algorithm: sha256WithRSAEncryption
        Issuer: C=DE, ST=Hessen, O=privacyidea, CN=CA001
        Validity
            Not Before: Jul 31 22:51:37 2017 GMT
            Not After : Jul 31 22:51:37 2018 GMT
        Subject: OU=realm1, CN=cornelius/emailAddress=user@localhost.localdomain
        Subject Public Key Info:
            Public Key Algorithm: rsaEncryption
                Public-Key: (2048 bit)
                Modulus:
                    00:a3:a1:9a:3f:4f:27:f1:43:16:02:d7:96:25:7d:
                    2b:f9:00:d0:3b:e5:e8:8a:84:f8:7f:95:01:d9:65:
                    0c:b0:9b:e5:8b:82:99:f7:33:97:64:63:5f:b7:cc:
                    78:9b:a4:37:6f:96:ce:05:23:27:58:8c:12:96:d5:
                    12:6a:0f:78:b2:00:e7:ef:9d:e3:fc:d6:aa:f4:35:
                    a5:7a:e6:58:bf:1b:1c:56:09:84:5f:17:4d:a4:a9:
                    59:e8:8b:e2:21:cd:39:04:1d:8c:19:f9:5c:02:69:
                    6b:f7:b1:7d:f5:d1:10:0c:1c:53:d1:f2:63:f7:90:
                    93:59:88:42:0a:b9:af:f3:54:cc:fa:ea:d0:77:6d:
                    e3:ca:79:a7:bc:13:f2:e2:26:89:ba:27:bc:0a:72:
                    6d:63:78:dd:69:dd:60:ff:d8:59:85:34:ad:c9:87:
                    9e:9c:b0:33:ea:e8:30:92:bb:8d:93:b8:6b:44:61:
                    7d:d1:2a:5b:aa:6a:24:3e:07:0e:e7:eb:aa:6a:b1:
                    6f:f2:0c:16:1a:0f:62:0e:18:41:2b:f0:82:dc:2d:
                    08:98:4e:82:83:39:23:af:aa:ef:f1:e6:cd:62:67:
                    3a:00:79:15:68:86:3e:3f:46:ea:70:d9:75:84:ca:
                    a8:6c:da:a6:54:e5:c8:d2:86:44:9c:9d:5b:43:c7:
                    b4:6f
                Exponent: 65537 (0x10001)
        X509v3 extensions:
            X509v3 Key Usage: 
                Digital Signature, Key Encipherment
            X509v3 Basic Constraints: 
                CA:FALSE
            Netscape Cert Type: 
                SSL Server
            Netscape Comment: 
                OpenSSL Generated Server Certificate
            X509v3 Subject Key Identifier: 
                73:47:D4:26:D7:5F:2C:26:F3:CA:44:66:C9:9F:05:DD:AC:A8:FC:D6
            X509v3 Authority Key Identifier: 
                keyid:F4:A7:C0:CC:91:46:AF:64:F3:91:F2:27:F8:C8:B2:6F:8A:87:32:73
                DirName:/C=DE/ST=Hessen/O=privacyidea/CN=CA001
                serial:FB:C8:EB:AC:83:CD:12:07

            X509v3 Extended Key Usage: 
                TLS Web Server Authentication
    Signature Algorithm: sha256WithRSAEncryption
         48:e4:46:1d:09:de:7f:b3:1f:f8:d3:49:5d:de:03:df:3e:19:
         75:df:0e:97:d0:13:1d:c3:8a:38:8a:63:2f:53:db:2d:c0:c7:
         ba:c2:de:91:a8:85:f8:a6:b9:42:fd:e6:b0:2f:f2:d7:95:19:
         ea:28:8d:54:c8:0b:fb:5e:5e:2d:94:d4:f3:33:db:cd:b3:a5:
         3f:91:28:b2:7f:e1:29:0e:66:7b:9c:75:72:c2:fe:da:1a:6a:
         72:a2:0f:f6:0b:04:c8:20:97:a7:2e:ec:2a:92:ba:0e:33:a6:
         37:a2:d5:1a:7d:2b:e3:fe:0a:7f:55:0e:13:fb:68:f1:12:a7:
         e7:d2:fd:82:45:3e:6d:4b:90:ce:46:28:74:a4:a5:cd:96:0d:
         53:e1:e2:73:87:a7:b6:f7:c5:2d:4d:28:d1:bf:04:78:a7:36:
         aa:d8:47:92:28:35:74:b6:a2:d8:d6:c9:3c:c4:ef:09:b9:cb:
         8a:72:9d:4d:4e:ab:b0:b4:b5:b8:d1:52:c4:10:f2:d0:7a:eb:
         bc:4e:99:80:d6:eb:ef:c1:03:02:b3:e4:84:a2:ba:28:74:ef:
         b0:42:84:b7:c7:95:df:4a:95:52:3f:ca:0f:99:f9:ce:f5:7a:
         7c:db:56:5b:c3:43:6f:c8:cc:8f:6e:6b:d3:39:df:2a:a8:18:
         e4:32:ad:bc
-----BEGIN CERTIFICATE-----
MIIEIjCCAwqgAwIBAgIEEAAA3jANBgkqhkiG9w0BAQsFADBEMQswCQYDVQQGEwJE
RTEPMA0GA1UECAwGSGVzc2VuMRQwEgYDVQQKDAtwcml2YWN5aWRlYTEOMAwGA1UE
AwwFQ0EwMDEwHhcNMTcwNzMxMjI1MTM3WhcNMTgwNzMxMjI1MTM3WjBQMQ8wDQYD
VQQLDAZyZWFsbTExEjAQBgNVBAMMCWNvcm5lbGl1czEpMCcGCSqGSIb3DQEJARYa
dXNlckBsb2NhbGhvc3QubG9jYWxkb21haW4wggEiMA0GCSqGSIb3DQEBAQUAA4IB
DwAwggEKAoIBAQCjoZo/TyfxQxYC15YlfSv5ANA75eiKhPh/lQHZZQywm+WLgpn3
M5dkY1+3zHibpDdvls4FIydYjBKW1RJqD3iyAOfvneP81qr0NaV65li/GxxWCYRf
F02kqVnoi+IhzTkEHYwZ+VwCaWv3sX310RAMHFPR8mP3kJNZiEIKua/zVMz66tB3
bePKeae8E/LiJom6J7wKcm1jeN1p3WD/2FmFNK3Jh56csDPq6DCSu42TuGtEYX3R
KluqaiQ+Bw7n66pqsW/yDBYaD2IOGEEr8ILcLQiYToKDOSOvqu/x5s1iZzoAeRVo
hj4/Rupw2XWEyqhs2qZU5cjShkScnVtDx7RvAgMBAAGjggEOMIIBCjALBgNVHQ8E
BAMCBaAwCQYDVR0TBAIwADARBglghkgBhvhCAQEEBAMCBkAwMwYJYIZIAYb4QgEN
BCYWJE9wZW5TU0wgR2VuZXJhdGVkIFNlcnZlciBDZXJ0aWZpY2F0ZTAdBgNVHQ4E
FgQUc0fUJtdfLCbzykRmyZ8F3ayo/NYwdAYDVR0jBG0wa4AU9KfAzJFGr2TzkfIn
+Miyb4qHMnOhSKRGMEQxCzAJBgNVBAYTAkRFMQ8wDQYDVQQIDAZIZXNzZW4xFDAS
BgNVBAoMC3ByaXZhY3lpZGVhMQ4wDAYDVQQDDAVDQTAwMYIJAPvI66yDzRIHMBMG
A1UdJQQMMAoGCCsGAQUFBwMBMA0GCSqGSIb3DQEBCwUAA4IBAQBI5EYdCd5/sx/4
00ld3gPfPhl13w6X0BMdw4o4imMvU9stwMe6wt6RqIX4prlC/eawL/LXlRnqKI1U
yAv7Xl4tlNTzM9vNs6U/kSiyf+EpDmZ7nHVywv7aGmpyog/2CwTIIJenLuwqkroO
M6Y3otUafSvj/gp/VQ4T+2jxEqfn0v2CRT5tS5DORih0pKXNlg1T4eJzh6e298Ut
TSjRvwR4pzaq2EeSKDV0tqLY1sk8xO8JucuKcp1NTquwtLW40VLEEPLQeuu8TpmA
1uvvwQMCs+SEoroodO+wQoS3x5XfSpVSP8oPmfnO9Xp821Zbw0NvyMyPbmvTOd8q
qBjkMq28
-----END CERTIFICATE-----
