Certificate:
    Data:
        Version: 3 (0x2)
        Serial Number: 268435670 (0x100000d6)
    Signature Algorithm: sha256WithRSAEncryption
        Issuer: C=DE, ST=Hessen, O=privacyidea, CN=CA001
        Validity
            Not Before: Aug  7 12:18:35 2017 GMT
            Not After : Aug  7 12:18:35 2018 GMT
        Subject: OU=realm1, CN=cornelius/emailAddress=user@localhost.localdomain
        Subject Public Key Info:
            Public Key Algorithm: rsaEncryption
                Public-Key: (2048 bit)
                Modulus:
                    00:cf:6b:35:ab:dc:78:52:19:05:ee:2f:58:01:6f:
                    e5:79:14:33:64:5c:81:47:03:49:4d:da:fd:93:dc:
                    15:45:ef:88:9d:a7:d7:20:88:10:9c:71:4b:f6:56:
                    45:ce:2d:42:b2:82:79:2f:c3:0b:2d:30:dd:bd:ce:
                    ce:db:e8:62:6f:0b:db:b4:1a:45:39:d3:5e:e3:bc:
                    74:7d:73:9c:27:41:60:c0:34:c5:0e:67:91:61:1c:
                    7a:0f:be:ab:b1:e3:7f:5c:34:29:5d:cd:6d:e4:28:
                    96:7e:59:ea:91:23:03:a3:bc:b6:4c:fc:a1:6a:8c:
                    0a:30:c1:cb:f6:b6:b1:8f:1c:a0:c7:db:9e:fb:ad:
                    0c:a8:78:b5:57:44:dd:e8:bc:39:b5:38:84:b6:e1:
                    ef:c7:b6:1d:fa:db:6e:07:d9:4b:80:cc:fc:e0:a6:
                    14:dc:a1:f0:c8:b1:bc:7f:d3:bf:03:df:d9:1b:c4:
                    f0:fd:57:2d:b6:a8:49:6c:26:26:88:04:a0:92:2b:
                    77:47:71:90:25:0e:8c:7d:28:62:bb:4f:46:97:fe:
                    dc:ba:67:40:44:6a:3c:ed:b0:26:29:fc:96:bf:cb:
                    e3:f0:f5:c5:bf:97:42:23:11:41:8d:e9:ad:84:04:
                    72:a3:9a:dc:19:20:d9:49:17:b8:27:85:34:78:52:
                    04:c1
                Exponent: 65537 (0x10001)
        X509v3 extensions:
            X509v3 Key Usage: 
                Digital Signature, Key Encipherment
            X509v3 Basic Constraints: 
                CA:FALSE
            Netscape Cert Type: 
                SSL Server
            Netscape Comment: 
                OpenSSL Generated Server Certificate
            X509v3 Subject Key Identifier: 
                7D:69:40:8F:79:5D:28:99:54:9A:8F:2C:37:06:86:3B:E5:6C:F9:27
            X509v3 Authority Key Identifier: 
                keyid:F4:A7:C0:CC:91:46:AF:64:F3:91:F2:27:F8:C8:B2:6F:8A:87:32:73
                DirName:/C=DE/ST=Hessen/O=privacyidea/CN=CA001
                serial:FB:C8:EB:AC:83:CD:12:07

            X509v3 Extended Key Usage: 
                TLS Web Server Authentication
    Signature Algorithm: sha256WithRSAEncryption
         70:da:d5:56:de:1a:5b:39:33:ab:08:4e:a6:67:54:8b:2f:b5:
         a0:ee:ec:77:ce:af:1c:84:f7:4d:79:3e:b3:e8:b1:5e:2b:e6:
         f1:68:16:1d:ee:ad:97:ef:e6:5f:ee:66:85:83:28:b8:e7:52:
         b6:e7:f2:6d:69:a8:31:a2:13:4a:a6:63:42:6c:d4:8f:47:60:
         b4:34:ee:a8:d8:bf:db:c7:d7:ac:24:40:96:6c:36:b8:f7:27:
         95:77:ba:b0:0a:07:14:1e:f3:40:7b:53:3c:82:46:02:8f:5f:
         41:cb:f9:71:88:49:55:59:7e:c1:f1:85:04:a0:51:63:bd:83:
         95:21:25:26:ab:20:a1:8a:36:29:de:7b:75:e3:ee:05:4b:3c:
         b3:57:be:77:82:03:d3:4e:46:f3:d4:3d:19:f4:a7:3b:56:c1:
         b0:f4:3b:cd:24:d1:28:25:52:38:50:62:17:ac:a6:1a:14:af:
         5b:fd:c9:f7:28:77:db:32:5c:87:54:9d:c2:ed:07:cb:37:b6:
         b9:35:66:f1:45:07:46:6d:6b:03:e9:7e:da:bb:95:dd:5f:a5:
         d5:bc:a7:37:9f:ed:2a:31:4f:54:bb:a9:be:1c:f2:3d:ad:b7:
         0a:3e:a0:71:6a:7c:12:99:ce:40:24:77:78:82:94:ff:5f:ab:
         47:ba:b8:e8
-----BEGIN CERTIFICATE-----
MIIEIjCCAwqgAwIBAgIEEAAA1jANBgkqhkiG9w0BAQsFADBEMQswCQYDVQQGEwJE
RTEPMA0GA1UECAwGSGVzc2VuMRQwEgYDVQQKDAtwcml2YWN5aWRlYTEOMAwGA1UE
AwwFQ0EwMDEwHhcNMTcwODA3MTIxODM1WhcNMTgwODA3MTIxODM1WjBQMQ8wDQYD
VQQLDAZyZWFsbTExEjAQBgNVBAMMCWNvcm5lbGl1czEpMCcGCSqGSIb3DQEJARYa
dXNlckBsb2NhbGhvc3QubG9jYWxkb21haW4wggEiMA0GCSqGSIb3DQEBAQUAA4IB
DwAwggEKAoIBAQDPazWr3HhSGQXuL1gBb+V5FDNkXIFHA0lN2v2T3BVF74idp9cg
iBCccUv2VkXOLUKygnkvwwstMN29zs7b6GJvC9u0GkU5017jvHR9c5wnQWDANMUO
Z5FhHHoPvqux439cNCldzW3kKJZ+WeqRIwOjvLZM/KFqjAowwcv2trGPHKDH2577
rQyoeLVXRN3ovDm1OIS24e/Hth36224H2UuAzPzgphTcofDIsbx/078D39kbxPD9
Vy22qElsJiaIBKCSK3dHcZAlDox9KGK7T0aX/ty6Z0BEajztsCYp/Ja/y+Pw9cW/
l0IjEUGN6a2EBHKjmtwZINlJF7gnhTR4UgTBAgMBAAGjggEOMIIBCjALBgNVHQ8E
BAMCBaAwCQYDVR0TBAIwADARBglghkgBhvhCAQEEBAMCBkAwMwYJYIZIAYb4QgEN
BCYWJE9wZW5TU0wgR2VuZXJhdGVkIFNlcnZlciBDZXJ0aWZpY2F0ZTAdBgNVHQ4E
FgQUfWlAj3ldKJlUmo8sNwaGO+Vs+ScwdAYDVR0jBG0wa4AU9KfAzJFGr2TzkfIn
+Miyb4qHMnOhSKRGMEQxCzAJBgNVBAYTAkRFMQ8wDQYDVQQIDAZIZXNzZW4xFDAS
BgNVBAoMC3ByaXZhY3lpZGVhMQ4wDAYDVQQDDAVDQTAwMYIJAPvI66yDzRIHMBMG
A1UdJQQMMAoGCCsGAQUFBwMBMA0GCSqGSIb3DQEBCwUAA4IBAQBw2tVW3hpbOTOr
CE6mZ1SLL7Wg7ux3zq8chPdNeT6z6LFeK+bxaBYd7q2X7+Zf7maFgyi451K25/Jt
aagxohNKpmNCbNSPR2C0NO6o2L/bx9esJECWbDa49yeVd7qwCgcUHvNAe1M8gkYC
j19By/lxiElVWX7B8YUEoFFjvYOVISUmqyChijYp3nt14+4FSzyzV753ggPTTkbz
1D0Z9Kc7VsGw9DvNJNEoJVI4UGIXrKYaFK9b/cn3KHfbMlyHVJ3C7QfLN7a5NWbx
RQdGbWsD6X7au5XdX6XVvKc3n+0qMU9Uu6m+HPI9rbcKPqBxanwSmc5AJHd4gpT/
X6tHurjo
-----END CERTIFICATE-----
